(dp0
c__builtin__
frozenset
p1
((lp2
(I4
I2
tp3
a(I1
I3
tp4
a(I4
I3
tp5
atp6
Rp7
(dp8
S'down'
p9
c__builtin__
set
p10
((lp11
g1
((lp12
(I4
I2
tp13
a(I1
I3
tp14
atp15
Rp16
ag1
((lp17
(I4
I2
tp18
a(I1
I3
tp19
a(I4
I3
tp20
atp21
Rp22
ag1
((lp23
(I1
I3
tp24
atp25
Rp26
ag1
((lp27
tp28
Rp29
ag1
((lp30
g18
ag20
atp31
Rp32
ag1
((lp33
g13
atp34
Rp35
ag1
((lp36
(I1
I3
tp37
a(I4
I3
tp38
atp39
Rp40
ag1
((lp41
g38
atp42
Rp43
atp44
Rp45
sS'max'
p46
g10
((lp47
g1
((lp48
(I1
I2
tp49
ag19
a(I1
I4
tp50
a(I2
I3
tp51
ag20
ag18
atp52
Rp53
ag1
((lp54
(I1
I3
tp55
a(I2
I1
tp56
a(I2
I3
tp57
a(I4
I3
tp58
a(I4
I2
tp59
a(I4
I1
tp60
atp61
Rp62
ag1
((lp63
(I1
I2
tp64
a(I1
I3
tp65
a(I2
I3
tp66
a(I4
I3
tp67
a(I4
I2
tp68
a(I4
I1
tp69
atp70
Rp71
ag1
((lp72
(I1
I2
tp73
a(I3
I2
tp74
a(I1
I3
tp75
a(I4
I3
tp76
a(I4
I2
tp77
a(I4
I1
tp78
atp79
Rp80
ag1
((lp81
(I1
I2
tp82
a(I3
I2
tp83
a(I1
I3
tp84
a(I1
I4
tp85
a(I4
I3
tp86
a(I4
I2
tp87
atp88
Rp89
atp90
Rp91
sS'up'
p92
g10
((lp93
g22
ag1
((lp94
g49
ag18
ag19
ag20
atp95
Rp96
ag1
((lp97
g49
ag18
ag19
ag20
ag50
atp98
Rp99
ag53
ag1
((lp100
g82
ag87
ag83
ag84
ag86
atp101
Rp102
ag62
ag89
ag80
ag1
((lp103
g49
ag18
ag19
ag51
ag20
atp104
Rp105
ag1
((lp106
g18
ag19
ag51
ag20
atp107
Rp108
ag1
((lp109
g68
ag69
ag65
ag66
ag67
atp110
Rp111
ag1
((lp112
g68
ag65
ag69
ag67
atp113
Rp114
ag71
ag1
((lp115
g64
ag68
ag65
ag69
ag67
atp116
Rp117
atp118
Rp119
ssg1
((lp120
(I1
I2
tp121
a(I3
I2
tp122
a(I3
I1
tp123
a(I3
I4
tp124
a(I1
I4
tp125
atp126
Rp127
(dp128
g9
g10
((lp129
g1
((lp130
(I1
I2
tp131
a(I3
I2
tp132
a(I3
I1
tp133
a(I3
I4
tp134
a(I1
I4
tp135
atp136
Rp137
ag1
((lp138
(I3
I4
tp139
atp140
Rp141
ag29
ag1
((lp142
(I1
I4
tp143
atp144
Rp145
ag1
((lp146
(I1
I2
tp147
a(I3
I2
tp148
atp149
Rp150
ag1
((lp151
g147
ag148
a(I3
I4
tp152
atp153
Rp154
ag1
((lp155
g131
ag132
ag133
ag134
atp156
Rp157
ag1
((lp158
g132
ag133
ag134
ag135
atp159
Rp160
ag1
((lp161
g147
ag148
ag152
a(I1
I4
tp162
atp163
Rp164
ag1
((lp165
g139
ag143
atp166
Rp167
ag1
((lp168
g148
ag152
atp169
Rp170
ag1
((lp171
(I1
I2
tp172
ag139
ag143
atp173
Rp174
ag1
((lp175
g132
ag133
atp176
Rp177
ag1
((lp178
(I3
I1
tp179
atp180
Rp181
ag1
((lp182
g179
a(I3
I4
tp183
atp184
Rp185
ag1
((lp186
g172
atp187
Rp188
ag1
((lp189
g179
ag183
a(I1
I4
tp190
atp191
Rp192
ag1
((lp193
g131
ag132
ag133
atp194
Rp195
ag1
((lp196
g147
ag148
ag162
atp197
Rp198
ag1
((lp199
g132
ag133
ag134
atp200
Rp201
ag1
((lp202
g148
ag152
ag162
atp203
Rp204
ag1
((lp205
g148
ag162
atp206
Rp207
ag1
((lp208
g172
ag139
atp209
Rp210
ag1
((lp211
g172
ag143
atp212
Rp213
ag1
((lp214
g148
atp215
Rp216
atp217
Rp218
sg46
g10
((lp219
g1
((lp220
g131
ag132
ag133
ag135
ag134
a(I2
I4
tp221
atp222
Rp223
ag1
((lp224
(I1
I2
tp225
a(I3
I2
tp226
a(I3
I1
tp227
a(I1
I4
tp228
a(I4
I2
tp229
a(I3
I4
tp230
atp231
Rp232
atp233
Rp234
sg92
g10
((lp235
g223
ag137
ag232
atp236
Rp237
ssg1
((lp238
(I3
I1
tp239
a(I2
I1
tp240
a(I2
I3
tp241
a(I4
I3
tp242
a(I4
I2
tp243
a(I4
I1
tp244
atp245
Rp246
(dp247
g9
g10
((lp248
g1
((lp249
(I3
I1
tp250
a(I4
I1
tp251
atp252
Rp253
ag1
((lp254
(I2
I3
tp255
atp256
Rp257
ag1
((lp258
(I3
I1
tp259
a(I2
I1
tp260
a(I2
I3
tp261
a(I4
I3
tp262
a(I4
I2
tp263
a(I4
I1
tp264
atp265
Rp266
ag1
((lp267
(I4
I3
tp268
a(I2
I1
tp269
atp270
Rp271
ag1
((lp272
g179
a(I2
I1
tp273
atp274
Rp275
ag1
((lp276
(I4
I2
tp277
a(I3
I1
tp278
a(I4
I1
tp279
atp280
Rp281
ag29
ag1
((lp282
(I4
I2
tp283
a(I3
I1
tp284
a(I4
I1
tp285
a(I2
I1
tp286
atp287
Rp288
ag1
((lp289
g179
a(I2
I3
tp290
ag273
atp291
Rp292
ag1
((lp293
(I2
I3
tp294
ag251
atp295
Rp296
ag1
((lp297
g229
ag227
atp298
Rp299
ag1
((lp300
g59
ag60
ag57
ag58
ag56
atp301
Rp302
ag1
((lp303
(I3
I1
tp304
a(I4
I1
tp305
a(I4
I3
tp306
atp307
Rp308
ag1
((lp309
g18
ag51
ag20
atp310
Rp311
ag1
((lp312
g251
a(I2
I1
tp313
atp314
Rp315
ag1
((lp316
g294
ag250
ag251
ag313
atp317
Rp318
ag181
ag1
((lp319
g283
ag285
ag286
atp320
Rp321
ag1
((lp322
(I2
I3
tp323
ag38
atp324
Rp325
ag1
((lp326
g304
ag305
ag306
a(I2
I1
tp327
atp328
Rp329
ag1
((lp330
(I4
I1
tp331
a(I2
I3
tp332
a(I4
I3
tp333
a(I2
I1
tp334
atp335
Rp336
ag1
((lp337
g59
ag60
ag58
ag56
atp338
Rp339
ag1
((lp340
g331
ag333
ag334
atp341
Rp342
ag1
((lp343
g250
ag251
ag313
atp344
Rp345
ag1
((lp346
g251
atp347
Rp348
ag1
((lp349
g331
ag333
atp350
Rp351
ag32
ag1
((lp352
g294
ag251
ag313
atp353
Rp354
ag35
ag1
((lp355
(I2
I1
tp356
atp357
Rp358
ag1
((lp359
g68
ag69
ag67
atp360
Rp361
ag1
((lp362
(I2
I3
tp363
ag356
atp364
Rp365
ag1
((lp366
g68
ag69
ag66
ag67
atp367
Rp368
ag1
((lp369
g263
ag259
ag264
ag262
ag260
atp370
Rp371
ag1
((lp372
g305
ag304
a(I2
I3
tp373
ag306
ag327
atp374
Rp375
ag1
((lp376
g263
ag259
ag264
ag262
atp377
Rp378
ag1
((lp379
g331
ag332
ag333
atp380
Rp381
ag43
ag1
((lp382
g277
ag279
atp383
Rp384
ag1
((lp385
(I2
I3
tp386
ag268
ag269
atp387
Rp388
atp389
Rp390
sg46
g10
((lp391
g266
atp392
Rp393
sg92
g10
((lp394
g266
atp395
Rp396
ssg1
((lp397
(I3
I1
tp398
a(I3
I4
tp399
a(I2
I1
tp400
atp401
Rp402
(dp403
g9
g10
((lp404
g185
ag1
((lp405
(I3
I4
tp406
ag356
atp407
Rp408
ag275
ag1
((lp409
g179
ag183
ag273
atp410
Rp411
ag141
ag29
ag181
ag358
atp412
Rp413
sg46
g10
((lp414
g1
((lp415
g179
ag190
ag290
ag273
ag183
a(I2
I4
tp416
atp417
Rp418
ag1
((lp419
(I3
I2
tp420
a(I3
I4
tp421
ag284
ag286
ag283
ag285
atp422
Rp423
ag1
((lp424
g251
ag250
ag313
ag294
a(I3
I4
tp425
a(I2
I4
tp426
atp427
Rp428
ag1
((lp429
(I3
I2
tp430
a(I3
I4
tp431
a(I3
I1
tp432
a(I2
I1
tp433
a(I4
I1
tp434
a(I2
I4
tp435
atp436
Rp437
ag1
((lp438
(I3
I2
tp439
a(I3
I1
tp440
a(I1
I4
tp441
a(I2
I1
tp442
a(I3
I4
tp443
a(I2
I4
tp444
atp445
Rp446
atp447
Rp448
sg92
g10
((lp449
g446
ag411
ag437
ag1
((lp450
g425
ag250
ag251
ag313
atp451
Rp452
ag423
ag1
((lp453
g439
ag440
ag443
ag444
ag442
atp454
Rp455
ag418
ag428
ag1
((lp456
g434
ag430
ag432
ag431
ag433
atp457
Rp458
ag1
((lp459
g425
ag250
ag251
ag426
ag313
atp460
Rp461
ag1
((lp462
g179
ag183
ag416
ag273
atp463
Rp464
ag1
((lp465
g179
ag183
ag190
ag273
ag416
atp466
Rp467
ag1
((lp468
g183
ag179
ag290
ag416
ag273
atp469
Rp470
ag1
((lp471
g439
ag440
ag443
ag442
atp472
Rp473
atp474
Rp475
ssg1
((lp476
(I4
I2
tp477
a(I3
I1
tp478
a(I4
I1
tp479
a(I2
I1
tp480
atp481
Rp482
(dp483
g9
g10
((lp484
g253
ag315
ag275
ag345
ag348
ag29
ag181
ag288
ag35
ag358
ag321
ag299
ag384
ag281
atp485
Rp486
sg46
g10
((lp487
g423
ag1
((lp488
(I3
I2
tp489
a(I3
I1
tp490
a(I2
I1
tp491
a(I4
I3
tp492
a(I4
I2
tp493
a(I4
I1
tp494
atp495
Rp496
ag266
atp497
Rp498
sg92
g10
((lp499
g371
ag1
((lp500
g283
ag420
ag284
ag285
ag286
atp501
Rp502
ag496
ag288
ag423
ag266
atp503
Rp504
ssg1
((lp505
(I1
I2
tp506
a(I4
I3
tp507
atp508
Rp509
(dp510
g9
g10
((lp511
g43
ag1
((lp512
(I1
I2
tp513
ag38
atp514
Rp515
ag29
ag188
atp516
Rp517
sg46
g10
((lp518
g53
ag1
((lp519
(I1
I2
tp520
a(I3
I2
tp521
a(I3
I1
tp522
a(I4
I3
tp523
a(I4
I2
tp524
a(I4
I1
tp525
atp526
Rp527
ag89
ag80
ag1
((lp528
g513
ag37
a(I1
I4
tp529
ag323
ag38
a(I2
I4
tp530
atp531
Rp532
ag71
atp533
Rp534
sg92
g10
((lp535
g96
ag1
((lp536
g513
ag37
ag323
ag38
atp537
Rp538
ag99
ag102
ag1
((lp539
g49
ag18
ag20
atp540
Rp541
ag53
ag527
ag89
ag1
((lp542
g513
ag37
ag323
ag38
ag529
atp543
Rp544
ag515
ag1
((lp545
g82
ag87
ag83
ag86
atp546
Rp547
ag1
((lp548
g73
ag77
ag74
ag78
ag76
atp549
Rp550
ag532
ag105
ag80
ag71
ag1
((lp551
g64
ag68
ag69
ag67
atp552
Rp553
ag1
((lp554
g513
ag37
ag38
atp555
Rp556
ag117
ag1
((lp557
g513
ag37
ag38
ag529
atp558
Rp559
atp560
Rp561
ssg1
((lp562
g398
ag399
a(I2
I4
tp563
a(I1
I4
tp564
atp565
Rp566
(dp567
g9
g10
((lp568
g185
ag167
ag1
((lp569
g139
a(I2
I4
tp570
ag143
atp571
Rp572
ag1
((lp573
g570
ag143
atp574
Rp575
ag141
ag29
ag181
ag1
((lp576
g139
ag570
atp577
Rp578
ag145
ag192
ag1
((lp579
g179
ag183
ag416
ag190
atp580
Rp581
ag1
((lp582
g570
atp583
Rp584
ag1
((lp585
g179
ag416
atp586
Rp587
ag1
((lp588
g179
ag183
ag416
atp589
Rp590
atp591
Rp592
sg46
g10
((lp593
g418
ag223
ag446
atp594
Rp595
sg92
g10
((lp596
g223
ag446
ag1
((lp597
g132
ag133
ag134
ag221
ag135
atp598
Rp599
ag418
ag581
ag467
atp600
Rp601
ssg1
((lp602
(I1
I2
tp603
a(I1
I3
tp604
a(I2
I4
tp605
a(I1
I4
tp606
atp607
Rp608
(dp609
g9
g10
((lp610
g1
((lp611
g172
ag570
ag143
atp612
Rp613
ag26
ag188
ag575
ag1
((lp614
g172
ag24
ag143
atp615
Rp616
ag29
ag145
ag1
((lp617
g24
ag570
atp618
Rp619
ag1
((lp620
g172
ag24
ag570
ag143
atp621
Rp622
ag213
ag584
ag1
((lp623
g24
ag570
ag143
atp624
Rp625
ag1
((lp626
g172
ag24
atp627
Rp628
ag1
((lp629
g24
ag143
atp630
Rp631
atp632
Rp633
sg46
g10
((lp634
g1
((lp635
g147
ag148
a(I1
I3
tp636
ag162
ag152
a(I2
I4
tp637
atp638
Rp639
ag532
ag1
((lp640
g172
ag24
ag143
ag255
ag139
ag570
atp641
Rp642
atp643
Rp644
sg92
g10
((lp645
g639
ag1
((lp646
g172
ag24
ag139
ag570
ag143
atp647
Rp648
ag532
ag642
ag1
((lp649
g172
ag24
ag255
ag570
ag143
atp650
Rp651
ag622
atp652
Rp653
ssg1
((lp654
g398
ag399
ag563
ag400
atp655
Rp656
(dp657
g9
g10
((lp658
g185
ag408
ag1
((lp659
g406
a(I2
I4
tp660
ag356
atp661
Rp662
ag1
((lp663
g660
ag356
atp664
Rp665
ag141
ag275
ag29
ag181
ag578
ag358
ag411
ag464
ag1
((lp666
g179
ag416
ag273
atp667
Rp668
ag584
ag587
ag590
atp669
Rp670
sg46
g10
((lp671
g418
ag428
ag437
ag446
atp672
Rp673
sg92
g10
((lp674
g446
ag437
ag455
ag418
ag428
ag461
ag464
ag467
ag470
atp675
Rp676
ssg1
((lp677
(I4
I2
tp678
a(I4
I1
tp679
a(I2
I3
tp680
a(I4
I3
tp681
a(I2
I1
tp682
atp683
Rp684
(dp685
g9
g10
((lp686
g257
ag271
ag29
ag296
ag302
ag311
ag315
ag321
ag325
ag336
ag339
ag342
ag348
ag351
ag32
ag354
ag35
ag358
ag361
ag365
ag368
ag381
ag43
ag384
ag388
atp687
Rp688
sg46
g10
((lp689
g266
ag62
atp690
Rp691
sg92
g10
((lp692
g266
ag302
ag62
atp693
Rp694
ssg1
((lp695
(I1
I3
tp696
ag682
ag680
ag681
ag678
ag679
atp697
Rp698
(dp699
g9
g10
((lp700
g22
ag1
((lp701
g37
ag323
ag38
atp702
Rp703
ag257
ag108
ag271
ag29
ag296
ag1
((lp704
(I1
I3
tp705
ag331
ag333
atp706
Rp707
ag1
((lp708
(I1
I3
tp709
ag386
ag268
ag269
atp710
Rp711
ag62
ag16
ag1
((lp712
g24
ag255
atp713
Rp714
ag311
ag315
ag26
ag1
((lp715
(I1
I3
tp716
ag363
ag356
atp717
Rp718
ag302
ag321
ag325
ag114
ag336
ag339
ag342
ag348
ag351
ag32
ag354
ag35
ag358
ag1
((lp719
g331
ag705
ag332
ag333
atp720
Rp721
ag40
ag1
((lp722
g331
ag705
ag332
ag333
ag334
atp723
Rp724
ag361
ag365
ag368
ag381
ag43
ag111
ag384
ag388
atp725
Rp726
sg46
g10
((lp727
g62
atp728
Rp729
sg92
g10
((lp730
g62
atp731
Rp732
ssg1
((lp733
g506
a(I1
I3
tp734
ag507
a(I1
I4
tp735
atp736
Rp737
(dp738
g9
g10
((lp739
g515
ag26
ag188
ag559
ag616
ag29
ag556
ag145
ag43
ag40
ag213
ag1
((lp740
g37
ag38
ag529
atp741
Rp742
ag628
ag631
atp743
Rp744
sg46
g10
((lp745
g53
ag532
ag89
atp746
Rp747
sg92
g10
((lp748
g53
ag99
ag89
ag532
ag544
ag559
atp749
Rp750
ssg1
((lp751
(I1
I2
tp752
ag4
a(I1
I4
tp753
a(I2
I3
tp754
ag5
ag3
atp755
Rp756
(dp757
g9
g10
((lp758
g22
ag703
ag257
ag108
ag541
ag29
ag515
ag1
((lp759
g255
ag143
atp760
Rp761
ag559
ag16
ag714
ag311
ag26
ag1
((lp762
(I1
I2
tp763
ag13
ag14
a(I1
I4
tp764
atp765
Rp766
ag1
((lp767
g172
ag24
ag255
ag143
atp768
Rp769
ag544
ag1
((lp770
g172
ag24
ag255
atp771
Rp772
ag325
ag105
ag628
ag631
ag96
ag538
ag99
ag616
ag188
ag53
ag32
ag1
((lp773
g763
ag13
ag14
atp774
Rp775
ag35
ag213
ag40
ag1
((lp776
g37
ag323
ag38
ag529
atp777
Rp778
ag556
ag742
ag145
ag1
((lp779
g763
ag13
atp780
Rp781
ag1
((lp782
g24
ag255
ag143
atp783
Rp784
ag1
((lp785
g763
ag13
ag764
atp786
Rp787
ag43
atp788
Rp789
sg46
g10
((lp790
g53
atp791
Rp792
sg92
g10
((lp793
g53
atp794
Rp795
ssg1
((lp796
(I3
I1
tp797
a(I4
I1
tp798
a(I4
I3
tp799
atp800
Rp801
(dp802
g9
g10
((lp803
g253
ag308
ag29
ag348
ag351
ag181
ag43
atp804
Rp805
sg46
g10
((lp806
g1
((lp807
g304
ag327
ag373
ag306
ag305
a(I2
I4
tp808
atp809
Rp810
ag527
ag496
ag266
atp811
Rp812
sg92
g10
((lp813
g371
ag308
ag378
ag375
ag527
ag496
ag1
((lp814
g524
ag521
ag522
ag525
ag523
atp815
Rp816
ag810
ag266
ag329
atp817
Rp818
ssg1
((lp819
(I3
I4
tp820
ag606
atp821
Rp822
(dp823
g9
g10
((lp824
g145
ag167
ag141
ag29
atp825
Rp826
sg46
g10
((lp827
g1
((lp828
g716
a(I1
I4
tp829
ag363
ag356
ag406
ag660
atp830
Rp831
ag232
ag446
ag639
ag223
ag642
ag418
ag1
((lp832
g763
a(I3
I2
tp833
ag14
ag764
ag13
a(I3
I4
tp834
atp835
Rp836
atp837
Rp838
sg92
g10
((lp839
g137
ag1
((lp840
g139
ag255
ag570
ag143
atp841
Rp842
ag599
ag160
ag164
ag167
ag1
((lp843
g406
ag363
ag829
ag356
ag660
atp844
Rp845
ag174
ag1
((lp846
g148
ag152
ag637
ag162
atp847
Rp848
ag1
((lp849
g147
ag148
ag152
ag637
ag162
atp850
Rp851
ag1
((lp852
g172
ag24
ag139
ag143
atp853
Rp854
ag1
((lp855
g406
ag829
ag356
ag660
atp856
Rp857
ag642
ag1
((lp858
g147
ag148
ag636
ag152
ag162
atp859
Rp860
ag467
ag831
ag204
ag639
ag192
ag1
((lp861
g139
ag24
ag255
ag570
ag143
atp862
Rp863
ag581
ag232
ag1
((lp864
g24
ag139
ag570
ag143
atp865
Rp866
ag446
ag572
ag1
((lp867
g172
ag139
ag570
ag143
atp868
Rp869
ag223
ag1
((lp870
g24
ag139
ag143
atp871
Rp872
ag648
ag418
ag1
((lp873
g763
ag13
ag833
ag834
ag764
atp874
Rp875
ag836
atp876
Rp877
ssg1
((lp878
(I1
I3
tp879
atp880
Rp881
(dp882
g9
g10
((lp883
g29
ag1
((lp884
(I1
I3
tp885
atp886
Rp887
atp888
Rp889
sg46
g10
((lp890
g53
ag1
((lp891
(I1
I2
tp892
a(I3
I2
tp893
a(I1
I3
tp894
atp895
Rp896
ag1
((lp897
g709
a(I1
I4
tp898
ag386
ag269
ag268
a(I2
I4
tp899
atp900
Rp901
ag831
ag639
ag1
((lp902
(I1
I3
tp903
a(I2
I3
tp904
a(I2
I1
tp905
atp906
Rp907
ag62
ag89
ag1
((lp908
g705
ag334
ag332
ag333
ag331
a(I2
I4
tp909
atp910
Rp911
ag1
((lp912
(I1
I2
tp913
ag885
a(I2
I3
tp914
atp915
Rp916
ag532
ag642
ag80
ag71
ag836
atp917
Rp918
sg92
g10
((lp919
g22
ag703
ag108
ag89
ag62
ag707
ag651
ag105
ag625
ag559
ag16
ag1
((lp920
g885
ag914
atp921
Rp922
ag711
ag1
((lp923
g763
ag13
ag833
ag14
atp924
Rp925
ag887
ag766
ag907
ag544
ag102
ag854
ag916
ag1
((lp926
g37
ag323
ag38
ag529
ag530
atp927
Rp928
ag642
ag1
((lp929
g24
ag255
ag570
ag143
atp930
Rp931
ag860
ag1
((lp932
g147
ag148
ag636
ag162
atp933
Rp934
ag114
ag1
((lp935
g913
ag885
atp936
Rp937
ag631
ag96
ag538
ag99
ag616
ag53
ag639
ag111
ag775
ag1
((lp938
g37
ag323
ag530
ag38
atp939
Rp940
ag1
((lp941
g763
ag13
ag833
ag14
ag764
atp942
Rp943
ag619
ag721
ag863
ag40
ag724
ag71
ag778
ag622
ag556
ag1
((lp944
g24
ag255
ag570
atp945
Rp946
ag742
ag866
ag896
ag901
ag831
ag80
ag911
ag784
ag872
ag648
ag1
((lp947
g709
ag386
ag268
ag269
ag899
atp948
Rp949
ag769
ag1
((lp950
g716
ag363
ag660
ag356
atp951
Rp952
ag532
ag1
((lp953
g716
ag363
ag829
ag356
ag660
atp954
Rp955
ag836
ag117
atp956
Rp957
ssg1
((lp958
(I3
I4
tp959
a(I2
I3
tp960
a(I1
I4
tp961
a(I2
I1
tp962
a(I2
I4
tp963
atp964
Rp965
(dp966
g9
g10
((lp967
g257
ag842
ag141
ag29
ag145
ag584
ag761
ag167
ag662
ag665
ag857
ag1
((lp968
g363
ag829
ag356
ag660
atp969
Rp970
ag1
((lp971
g255
ag570
ag143
atp972
Rp973
ag1
((lp974
g406
ag363
ag660
ag356
atp975
Rp976
ag358
ag365
ag1
((lp977
g829
ag356
ag660
atp978
Rp979
ag408
ag572
ag575
ag845
ag578
ag1
((lp980
g255
ag570
atp981
Rp982
ag1
((lp983
g139
ag255
ag570
atp984
Rp985
ag1
((lp986
g363
ag660
ag356
atp987
Rp988
atp989
Rp990
sg46
g10
((lp991
g831
ag418
atp992
Rp993
sg92
g10
((lp994
g831
ag418
ag845
atp995
Rp996
ssg1
((lp997
(I1
I2
tp998
a(I4
I2
tp999
a(I1
I3
tp1000
a(I1
I4
tp1001
atp1002
Rp1003
(dp1004
g9
g10
((lp1005
g16
ag26
ag188
ag781
ag766
ag616
ag29
ag775
ag35
ag145
ag213
ag787
ag628
ag631
atp1006
Rp1007
sg46
g10
((lp1008
g53
ag836
ag89
atp1009
Rp1010
sg92
g10
((lp1011
g943
ag53
ag99
ag766
ag89
ag836
atp1012
Rp1013
ssg1
((lp1014
g752
ag3
ag5
atp1015
Rp1016
(dp1017
g9
g10
((lp1018
g188
ag781
ag541
ag29
ag32
ag35
ag515
ag43
atp1019
Rp1020
sg46
g10
((lp1021
g53
ag527
ag71
ag80
ag89
atp1022
Rp1023
sg92
g10
((lp1024
g96
ag53
ag99
ag541
ag102
ag527
ag89
ag547
ag550
ag80
ag105
ag71
ag553
ag117
atp1025
Rp1026
ssg1
((lp1027
g734
a(I2
I3
tp1028
ag507
ag735
a(I2
I4
tp1029
atp1030
Rp1031
(dp1032
g9
g10
((lp1033
g703
ag257
ag1
((lp1034
g323
ag530
ag38
atp1035
Rp1036
ag29
ag145
ag584
ag625
ag714
ag26
ag761
ag325
ag931
ag928
ag973
ag982
ag940
ag619
ag40
ag778
ag946
ag742
ag784
ag575
ag43
ag631
atp1037
Rp1038
sg46
g10
((lp1039
g901
ag532
atp1040
Rp1041
sg92
g10
((lp1042
g532
ag901
ag928
atp1043
Rp1044
ssg1
((lp1045
g752
ag3
ag4
ag754
ag5
atp1046
Rp1047
(dp1048
g9
g10
((lp1049
g22
ag703
ag257
ag108
ag541
ag29
ag515
ag16
ag714
ag311
ag26
ag772
ag325
ag105
ag628
ag96
ag538
ag188
ag32
ag775
ag35
ag40
ag556
ag781
ag43
atp1050
Rp1051
sg46
g10
((lp1052
g53
ag71
atp1053
Rp1054
sg92
g10
((lp1055
g53
ag71
ag105
atp1056
Rp1057
ssg1
((lp1058
g603
ag605
ag606
atp1059
Rp1060
(dp1061
g9
g10
((lp1062
g613
ag188
ag575
ag29
ag145
ag213
ag584
atp1063
Rp1064
sg46
g10
((lp1065
g639
ag223
ag532
ag642
atp1066
Rp1067
sg92
g10
((lp1068
g869
ag639
ag851
ag223
ag648
ag532
ag642
ag651
ag613
ag622
atp1069
Rp1070
ssg1
((lp1071
(I4
I2
tp1072
a(I3
I2
tp1073
a(I3
I1
tp1074
atp1075
Rp1076
(dp1077
g9
g10
((lp1078
g1
((lp1079
g229
ag226
ag227
atp1080
Rp1081
ag177
ag29
ag181
ag35
ag1
((lp1082
g13
ag833
atp1083
Rp1084
ag299
ag216
atp1085
Rp1086
sg46
g10
((lp1087
g423
ag527
ag496
ag232
ag1
((lp1088
(I1
I2
tp1089
a(I3
I2
tp1090
ag279
ag278
ag277
a(I3
I4
tp1091
atp1092
Rp1093
atp1094
Rp1095
sg92
g10
((lp1096
g1
((lp1097
g229
ag226
ag227
ag230
atp1098
Rp1099
ag1
((lp1100
g277
ag1090
ag278
ag279
atp1101
Rp1102
ag232
ag1081
ag496
ag816
ag1
((lp1103
g1089
ag277
ag1090
ag278
ag279
atp1104
Rp1105
ag527
ag1
((lp1106
g225
ag229
ag226
ag227
ag230
atp1107
Rp1108
ag1093
ag423
ag502
ag1
((lp1109
g225
ag229
ag226
ag227
atp1110
Rp1111
ag1
((lp1112
g279
ag277
ag1090
ag278
ag1091
atp1113
Rp1114
atp1115
Rp1116
ssg1
((lp1117
(I1
I2
tp1118
ag879
atp1119
Rp1120
(dp1121
g9
g10
((lp1122
g29
ag887
ag1
((lp1123
g913
atp1124
Rp1125
ag937
atp1126
Rp1127
sg46
g10
((lp1128
g53
ag896
ag639
ag89
ag916
ag532
ag642
ag80
ag71
ag836
atp1129
Rp1130
sg92
g10
((lp1131
g89
ag651
ag105
ag559
ag53
ag925
ag766
ag769
ag544
ag102
ag854
ag916
ag642
ag860
ag934
ag937
ag96
ag538
ag99
ag616
ag639
ag775
ag532
ag71
ag622
ag556
ag943
ag896
ag648
ag80
ag836
ag117
atp1132
Rp1133
ssg1
((lp1134
(I4
I1
tp1135
a(I2
I3
tp1136
a(I4
I3
tp1137
a(I2
I1
tp1138
atp1139
Rp1140
(dp1141
g9
g10
((lp1142
g336
ag257
ag351
ag315
ag381
ag271
ag388
ag348
ag29
ag354
ag358
ag325
ag296
ag43
ag342
ag365
atp1143
Rp1144
sg46
g10
((lp1145
g911
ag810
ag62
ag266
atp1146
Rp1147
sg92
g10
((lp1148
g336
ag375
ag266
ag911
ag1
((lp1149
g331
ag332
ag333
ag334
ag909
atp1150
Rp1151
ag810
ag724
ag302
ag62
atp1152
Rp1153
ssg1
((lp1154
g752
ag3
ag4
ag5
ag753
atp1155
Rp1156
(dp1157
g9
g10
((lp1158
g22
ag541
ag29
ag515
ag559
ag16
ag26
ag766
ag628
ag631
ag96
ag99
ag616
ag188
ag32
ag775
ag35
ag213
ag40
ag556
ag742
ag145
ag781
ag787
ag43
atp1159
Rp1160
sg46
g10
((lp1161
g53
ag89
atp1162
Rp1163
sg92
g10
((lp1164
g53
ag99
ag89
atp1165
Rp1166
ssg1
((lp1167
g961
ag962
ag963
atp1168
Rp1169
(dp1170
g9
g10
((lp1171
g358
ag979
ag575
ag29
ag145
ag665
ag584
atp1172
Rp1173
sg46
g10
((lp1174
g831
ag418
ag901
ag446
atp1175
Rp1176
sg92
g10
((lp1177
g831
ag979
ag901
ag446
ag845
ag467
ag857
ag418
ag955
ag970
atp1178
Rp1179
ssg1
((lp1180
(I1
I2
tp1181
a(I3
I2
tp1182
a(I1
I3
tp1183
a(I1
I4
tp1184
a(I3
I4
tp1185
a(I2
I4
tp1186
atp1187
Rp1188
(dp1189
g9
g10
((lp1190
g141
ag29
ag145
ag150
ag154
ag584
ag625
ag164
ag167
ag26
ag869
ag170
ag198
ag174
ag848
ag648
ag851
ag854
ag860
ag613
ag628
ag631
ag204
ag616
ag188
ag639
ag1
((lp1191
g148
ag152
ag637
atp1192
Rp1193
ag619
ag622
ag866
ag1
((lp1194
g147
ag148
ag636
atp1195
Rp1196
ag207
ag934
ag572
ag575
ag578
ag872
ag210
ag213
ag216
atp1197
Rp1198
sg46
g10
((lp1199
g639
atp1200
Rp1201
sg92
g10
((lp1202
g639
atp1203
Rp1204
ssg1
((lp1205
(I4
I1
tp1206
atp1207
Rp1208
(dp1209
g9
g10
((lp1210
g348
ag29
atp1211
Rp1212
sg46
g10
((lp1213
g266
ag911
ag527
ag496
ag437
ag810
ag428
ag80
ag423
ag71
ag62
ag1093
atp1214
Rp1215
sg92
g10
((lp1216
g1102
ag253
ag1
((lp1217
g294
ag251
ag426
ag313
atp1218
Rp1219
ag266
ag281
ag288
ag296
ag1
((lp1220
g434
ag430
ag432
ag431
atp1221
Rp1222
ag707
ag553
ag62
ag1
((lp1223
g430
ag432
ag434
atp1224
Rp1225
ag1093
ag1
((lp1226
g430
ag432
ag434
ag433
atp1227
Rp1228
ag308
ag361
ag315
ag318
ag1
((lp1229
g1089
ag277
ag279
atp1230
Rp1231
ag302
ag437
ag428
ag321
ag527
ag329
ag114
ag496
ag1
((lp1232
g277
ag1090
ag279
atp1233
Rp1234
ag336
ag339
ag342
ag461
ag502
ag345
ag348
ag1
((lp1235
g1089
ag277
ag1090
ag279
atp1236
Rp1237
ag351
ag452
ag354
ag1
((lp1238
g425
ag250
ag251
atp1239
Rp1240
ag810
ag1105
ag550
ag80
ag721
ag71
ag1
((lp1241
g250
ag251
ag426
ag313
atp1242
Rp1243
ag724
ag117
ag1151
ag368
ag371
ag375
ag378
ag1
((lp1244
g77
ag74
ag78
ag76
atp1245
Rp1246
ag1
((lp1247
g251
ag426
ag313
atp1248
Rp1249
ag911
ag816
ag1
((lp1250
g430
ag434
atp1251
Rp1252
ag1114
ag381
ag423
ag111
ag384
ag1
((lp1253
g294
ag250
ag251
ag426
ag313
atp1254
Rp1255
ag458
atp1256
Rp1257
ssg1
((lp1258
(I1
I2
tp1259
a(I3
I2
tp1260
a(I3
I1
tp1261
a(I4
I3
tp1262
a(I4
I2
tp1263
a(I4
I1
tp1264
atp1265
Rp1266
(dp1267
g9
g10
((lp1268
g1102
ag253
ag1
((lp1269
g763
ag13
ag833
atp1270
Rp1271
ag541
ag281
ag29
ag515
ag547
ag150
ag299
ag553
ag1225
ag308
ag1231
ag177
ag181
ag1084
ag1081
ag1234
ag188
ag527
ag348
ag351
ag32
ag35
ag1
((lp1272
g87
ag83
ag86
atp1273
Rp1274
ag1105
ag550
ag195
ag361
ag378
ag1246
ag781
ag1252
ag1111
ag816
ag43
ag384
ag216
ag1237
atp1275
Rp1276
sg46
g10
((lp1277
g527
atp1278
Rp1279
sg92
g10
((lp1280
g527
atp1281
Rp1282
ssg1
((lp1283
g999
atp1284
Rp1285
(dp1286
g9
g10
((lp1287
g29
ag35
atp1288
Rp1289
sg46
g10
((lp1290
g53
ag232
ag62
ag496
ag527
ag89
ag80
ag423
ag266
ag71
ag836
ag1093
atp1291
Rp1292
sg92
g10
((lp1293
g22
ag1099
ag1271
ag108
ag541
ag281
ag288
ag89
ag547
ag1108
ag299
ag502
ag553
ag62
ag1093
ag266
ag16
ag311
ag925
ag1234
ag766
ag1231
ag1084
ag321
ag105
ag1081
ag496
ag1
((lp1294
g763
ag13
ag833
ag834
atp1295
Rp1296
ag96
ag53
ag99
ag102
ag1237
ag527
ag32
ag775
ag35
ag302
ag1274
ag1105
ag550
ag80
ag232
ag71
ag361
ag371
ag368
ag943
ag384
ag378
ag1246
ag781
ag1111
ag816
ag339
ag1102
ag787
ag117
ag114
ag423
ag1
((lp1297
g763
ag13
ag833
ag764
atp1298
Rp1299
ag111
ag875
ag836
ag1114
ag1
((lp1300
g13
ag833
ag834
atp1301
Rp1302
atp1303
Rp1304
ssg1
((lp1305
(I3
I2
tp1306
a(I3
I1
tp1307
a(I3
I4
tp1308
a(I2
I4
tp1309
a(I2
I1
tp1310
atp1311
Rp1312
(dp1313
g9
g10
((lp1314
g275
ag411
ag141
ag29
ag464
ag584
ag662
ag170
ag665
ag177
ag181
ag185
ag668
ag1193
ag587
ag358
ag201
ag473
ag455
ag1
((lp1315
g439
ag440
ag442
atp1316
Rp1317
ag408
ag578
ag1
((lp1318
g132
ag133
ag134
ag221
atp1319
Rp1320
ag216
ag590
atp1321
Rp1322
sg46
g10
((lp1323
g437
ag446
atp1324
Rp1325
sg92
g10
((lp1326
g455
ag437
ag446
atp1327
Rp1328
ssg1
((lp1329
g604
ag605
atp1330
Rp1331
(dp1332
g9
g10
((lp1333
g619
ag584
ag29
ag26
atp1334
Rp1335
sg46
g10
((lp1336
g831
ag901
ag639
ag911
ag532
ag642
atp1337
Rp1338
sg92
g10
((lp1339
g866
ag831
ag901
ag532
ag642
ag639
ag622
ag949
ag911
ag940
ag952
ag648
ag619
ag863
ag931
ag928
ag651
ag625
ag955
ag946
atp1340
Rp1341
ssg1
((lp1342
g1135
a(I1
I3
tp1343
ag1136
ag1137
ag1138
atp1344
Rp1345
(dp1346
g9
g10
((lp1347
g703
ag257
ag271
ag29
ag296
ag707
ag711
ag714
ag315
ag26
ag718
ag325
ag336
ag342
ag348
ag351
ag354
ag358
ag721
ag40
ag724
ag365
ag381
ag43
ag388
atp1348
Rp1349
sg46
g10
((lp1350
g911
ag62
atp1351
Rp1352
sg92
g10
((lp1353
g911
ag724
ag62
atp1354
Rp1355
ssg1
((lp1356
(I4
I2
tp1357
a(I4
I1
tp1358
a(I2
I3
tp1359
a(I4
I3
tp1360
atp1361
Rp1362
(dp1363
g9
g10
((lp1364
g257
ag311
ag381
ag351
ag348
ag29
ag32
ag35
ag325
ag296
ag43
ag384
ag361
ag368
atp1365
Rp1366
sg46
g10
((lp1367
g266
ag71
ag62
atp1368
Rp1369
sg92
g10
((lp1370
g266
ag111
ag302
ag62
ag71
ag368
atp1371
Rp1372
ssg1
((lp1373
(I1
I3
tp1374
ag960
ag961
ag962
ag963
atp1375
Rp1376
(dp1377
g9
g10
((lp1378
g257
ag29
ag145
ag584
ag625
ag714
ag26
ag665
ag931
ag761
ag970
ag973
ag979
ag982
ag358
ag619
ag365
ag946
ag955
ag718
ag784
ag575
ag952
ag631
ag988
atp1379
Rp1380
sg46
g10
((lp1381
g831
ag901
atp1382
Rp1383
sg92
g10
((lp1384
g831
ag901
ag955
atp1385
Rp1386
ssg1
((lp1387
g506
ag734
ag1028
ag507
ag735
atp1388
Rp1389
(dp1390
g9
g10
((lp1391
g703
ag257
ag29
ag515
ag761
ag559
ag714
ag26
ag769
ag544
ag772
ag325
ag628
ag631
ag538
ag616
ag188
ag213
ag40
ag778
ag556
ag742
ag145
ag784
ag43
atp1392
Rp1393
sg46
g10
((lp1394
g53
ag532
atp1395
Rp1396
sg92
g10
((lp1397
g53
ag532
ag544
atp1398
Rp1399
ssg1
((lp1400
g1306
ag1307
ag1308
ag1310
atp1401
Rp1402
(dp1403
g9
g10
((lp1404
g185
ag1317
ag408
ag275
ag170
ag411
ag141
ag177
ag29
ag181
ag358
ag216
ag201
ag473
atp1405
Rp1406
sg46
g10
((lp1407
g423
ag437
ag446
atp1408
Rp1409
sg92
g10
((lp1410
g446
ag437
ag455
ag458
ag423
ag473
atp1411
Rp1412
ssg1
((lp1413
g243
ag239
ag244
ag242
ag240
atp1414
Rp1415
(dp1416
g9
g10
((lp1417
g253
ag271
ag275
ag281
ag29
ag299
ag308
ag315
ag181
ag321
ag345
ag329
ag339
ag342
ag288
ag348
ag351
ag32
ag35
ag358
ag361
ag371
ag378
ag43
ag384
atp1418
Rp1419
sg46
g10
((lp1420
g496
ag266
atp1421
Rp1422
sg92
g10
((lp1423
g371
ag496
ag266
atp1424
Rp1425
ssg1
((lp1426
(I1
I2
tp1427
a(I3
I2
tp1428
a(I1
I3
tp1429
atp1430
Rp1431
(dp1432
g9
g10
((lp1433
g896
ag887
ag1125
ag29
ag1
((lp1434
g892
ag893
atp1435
Rp1436
ag1
((lp1437
g893
atp1438
Rp1439
ag937
atp1440
Rp1441
sg46
g10
((lp1442
g639
ag896
ag80
ag836
ag89
atp1443
Rp1444
sg92
g10
((lp1445
g943
ag896
ag925
ag639
ag89
ag102
ag80
ag860
ag934
ag836
atp1446
Rp1447
ssg1
((lp1448
g998
ag999
atp1449
Rp1450
(dp1451
g9
g10
((lp1452
g781
ag29
ag188
ag35
atp1453
Rp1454
sg46
g10
((lp1455
g53
ag232
ag527
ag89
ag80
ag71
ag836
ag1093
atp1456
Rp1457
sg92
g10
((lp1458
g1271
ag541
ag89
ag547
ag1108
ag553
ag1093
ag53
ag925
ag766
ag1231
ag105
ag1296
ag96
ag99
ag102
ag527
ag775
ag1105
ag550
ag80
ag232
ag71
ag943
ag781
ag836
ag787
ag1299
ag875
ag1111
ag117
ag1237
atp1459
Rp1460
ssg1
((lp1461
g1343
ag1138
ag1136
ag1137
ag1135
a(I2
I4
tp1462
atp1463
Rp1464
(dp1465
g9
g10
((lp1466
g703
ag257
ag1219
ag271
ag1036
ag29
ag296
ag707
ag584
ag714
ag711
ag315
ag26
ag665
ag325
ag336
ag342
ag348
ag982
ag351
ag354
ag1151
ag358
ag43
ag619
ag721
ag40
ag724
ag365
ag946
ag1
((lp1467
g386
ag268
ag269
ag899
atp1468
Rp1469
ag940
ag1249
ag911
ag949
ag381
ag718
ag952
ag388
ag988
atp1470
Rp1471
sg46
g10
((lp1472
g911
atp1473
Rp1474
sg92
g10
((lp1475
g911
atp1476
Rp1477
ssg1
((lp1478
g605
ag606
atp1479
Rp1480
(dp1481
g9
g10
((lp1482
g145
ag575
ag584
ag29
atp1483
Rp1484
sg46
g10
((lp1485
g831
ag901
ag446
ag639
ag223
ag532
ag642
ag418
atp1486
Rp1487
sg92
g10
((lp1488
g842
ag599
ag651
ag625
ag869
ag955
ag851
ag928
ag857
ag642
ag931
ag613
ag467
ag970
ag973
ag831
ag639
ag532
ag863
ag581
ag622
ag866
ag979
ag901
ag446
ag572
ag575
ag845
ag223
ag848
ag648
ag418
atp1489
Rp1490
ssg1
((lp1491
g820
ag605
ag606
atp1492
Rp1493
(dp1494
g9
g10
((lp1495
g167
ag572
ag575
ag141
ag29
ag578
ag145
ag584
atp1496
Rp1497
sg46
g10
((lp1498
g831
ag446
ag639
ag223
ag642
ag418
atp1499
Rp1500
sg92
g10
((lp1501
g866
ag831
ag842
ag642
ag446
ag869
ag639
ag845
ag572
ag851
ag599
ag848
ag648
ag857
ag863
ag223
ag581
ag418
ag467
atp1502
Rp1503
ssg1
((lp1504
g603
ag820
atp1505
Rp1506
(dp1507
g9
g10
((lp1508
g141
ag29
ag210
ag188
atp1509
Rp1510
sg46
g10
((lp1511
g232
ag639
ag223
ag642
ag836
ag1093
atp1512
Rp1513
sg92
g10
((lp1514
g164
ag137
ag1108
ag154
ag869
ag639
ag174
ag648
ag851
ag223
ag854
ag210
ag232
ag642
ag860
ag875
ag836
ag157
ag1093
ag1296
atp1515
Rp1516
ssg1
((lp1517
(I2
I3
tp1518
ag605
atp1519
Rp1520
(dp1521
g9
g10
((lp1522
g257
ag584
ag29
ag982
atp1523
Rp1524
sg46
g10
((lp1525
g831
ag901
ag911
ag810
ag428
ag532
ag642
ag418
atp1526
Rp1527
sg92
g10
((lp1528
g1
((lp1529
g179
ag290
ag416
ag273
atp1530
Rp1531
ag842
ag1219
ag651
ag1469
ag845
ag428
ag928
ag642
ag931
ag970
ag470
ag973
ag831
ag976
ag1151
ag940
ag418
ag532
ag863
ag1036
ag955
ag946
ag810
ag901
ag911
ag949
ag982
ag952
ag985
ag1255
ag988
atp1532
Rp1533
ssg1
((lp1534
g398
ag564
a(I2
I3
tp1535
ag400
ag399
ag563
atp1536
Rp1537
(dp1538
g9
g10
((lp1539
g257
ag842
ag275
ag411
ag141
ag29
ag145
ag292
ag464
ag584
ag761
ag167
ag662
ag665
ag181
ag857
ag467
ag970
ag470
ag973
ag1531
ag185
ag976
ag668
ag192
ag587
ag358
ag581
ag365
ag979
ag408
ag572
ag575
ag845
ag578
ag982
ag418
ag985
ag590
ag988
atp1540
Rp1541
sg46
g10
((lp1542
g418
atp1543
Rp1544
sg92
g10
((lp1545
g418
atp1546
Rp1547
ssg1
((lp1548
g998
ag999
a(I3
I2
tp1549
ag1001
atp1550
Rp1551
(dp1552
g9
g10
((lp1553
g207
ag1271
ag188
ag781
ag198
ag29
ag35
ag145
ag1084
ag150
ag213
ag1299
ag787
ag216
atp1554
Rp1555
sg46
g10
((lp1556
g232
ag836
ag89
atp1557
Rp1558
sg92
g10
((lp1559
g943
ag232
ag89
ag1299
ag875
ag836
atp1560
Rp1561
ssg1
((lp1562
g1518
ag605
ag606
atp1563
Rp1564
(dp1565
g9
g10
((lp1566
g257
ag575
ag29
ag145
ag982
ag584
ag761
ag973
atp1567
Rp1568
sg46
g10
((lp1569
g831
ag418
ag901
ag532
ag642
atp1570
Rp1571
sg92
g10
((lp1572
g831
ag901
ag842
ag863
ag845
ag418
ag928
ag642
ag931
ag532
ag651
ag955
ag970
ag973
atp1573
Rp1574
ssg1
((lp1575
g1428
atp1576
Rp1577
(dp1578
g9
g10
((lp1579
g1439
ag29
atp1580
Rp1581
sg46
g10
((lp1582
g896
ag1
((lp1583
(I3
I2
tp1584
a(I3
I1
tp1585
a(I2
I1
tp1586
atp1587
Rp1588
ag232
ag446
ag639
ag527
ag496
ag437
ag89
ag223
ag80
ag423
ag1
((lp1589
(I1
I2
tp1590
a(I3
I2
tp1591
a(I3
I1
tp1592
atp1593
Rp1594
ag836
ag1093
atp1595
Rp1596
sg92
g10
((lp1597
g1228
ag137
ag1271
ag1111
ag496
ag89
ag599
ag547
ag1108
ag232
ag1436
ag154
ag1222
ag157
ag1093
ag160
ag164
ag925
ag1234
ag170
ag1
((lp1598
g1591
ag1592
atp1599
Rp1600
ag437
ag851
ag102
ag1084
ag860
ag1225
ag934
ag1081
ag1296
ag1099
ag943
ag502
ag639
ag527
ag1193
ag1237
ag455
ag1274
ag1105
ag550
ag80
ag458
ag1594
ag198
ag201
ag473
ag204
ag896
ag207
ag1588
ag1246
ag446
ag1252
ag836
ag816
ag1102
ag223
ag848
ag1320
ag423
ag1299
ag875
ag1439
ag1114
ag1302
atp1601
Rp1602
ssg1
((lp1603
(I4
I1
tp1604
a(I4
I2
tp1605
a(I3
I2
tp1606
a(I3
I1
tp1607
a(I3
I4
tp1608
atp1609
Rp1610
(dp1611
g9
g10
((lp1612
g1102
ag253
ag141
ag29
ag299
ag1225
ag170
ag177
ag181
ag1084
ag1081
ag281
ag1234
ag1099
ag185
ag348
ag35
ag1222
ag1240
ag201
ag1252
ag384
ag216
ag1114
ag1302
atp1613
Rp1614
sg46
g10
((lp1615
g423
ag1093
atp1616
Rp1617
sg92
g10
((lp1618
g423
ag1093
ag1114
atp1619
Rp1620
ssg1
((lp1621
g999
ag1549
a(I3
I4
tp1622
atp1623
Rp1624
(dp1625
g9
g10
((lp1626
g170
ag141
ag29
ag35
ag1084
ag216
ag1302
atp1627
Rp1628
sg46
g10
((lp1629
g423
ag232
ag836
ag1093
atp1630
Rp1631
sg92
g10
((lp1632
g1099
ag232
ag1302
ag1108
ag1093
ag423
ag875
ag836
ag1114
ag1296
atp1633
Rp1634
ssg1
((lp1635
g734
ag1028
ag507
atp1636
Rp1637
(dp1638
g9
g10
((lp1639
g714
ag257
ag26
ag703
ag29
ag325
ag40
ag43
atp1640
Rp1641
sg46
g10
((lp1642
g53
ag901
ag911
ag532
ag71
ag62
atp1643
Rp1644
sg92
g10
((lp1645
g53
ag703
ag901
ag711
ag108
ag538
ag911
ag949
ag940
ag71
ag928
ag721
ag105
ag724
ag532
ag111
ag778
ag62
ag544
atp1646
Rp1647
ssg1
((lp1648
g998
ag999
ag1549
atp1649
Rp1650
(dp1651
g9
g10
((lp1652
g1271
ag188
ag781
ag29
ag35
ag1084
ag150
ag216
atp1653
Rp1654
sg46
g10
((lp1655
g232
ag527
ag89
ag80
ag836
ag1093
atp1656
Rp1657
sg92
g10
((lp1658
g943
ag1271
ag925
ag102
ag1111
ag1237
ag527
ag1105
ag89
ag547
ag1108
ag232
ag80
ag1299
ag875
ag836
ag550
ag1093
ag1296
atp1659
Rp1660
ssg1
((lp1661
g3
ag4
ag754
ag5
atp1662
Rp1663
(dp1664
g9
g10
((lp1665
g16
ag714
ag257
ag311
ag108
ag26
ag703
ag29
ag32
ag35
ag325
ag22
ag40
ag43
atp1666
Rp1667
sg46
g10
((lp1668
g53
ag71
ag62
atp1669
Rp1670
sg92
g10
((lp1671
g53
ag108
ag105
ag111
ag62
ag71
atp1672
Rp1673
ssg1
((lp1674
(I4
I3
tp1675
a(I2
I1
tp1676
atp1677
Rp1678
(dp1679
g9
g10
((lp1680
g43
ag358
ag29
ag271
atp1681
Rp1682
sg46
g10
((lp1683
g901
ag266
ag911
ag496
ag810
ag62
atp1684
Rp1685
sg92
g10
((lp1686
g336
ag375
ag901
ag329
ag342
ag1469
ag271
ag339
ag911
ag62
ag302
ag371
ag1151
ag810
ag949
ag724
ag711
ag388
ag496
ag266
atp1687
Rp1688
ssg1
((lp1689
g678
ag679
ag681
ag682
atp1690
Rp1691
(dp1692
g9
g10
((lp1693
g339
ag361
ag315
ag271
ag351
ag348
ag29
ag32
ag35
ag358
ag321
ag43
ag342
ag384
atp1694
Rp1695
sg46
g10
((lp1696
g266
ag496
ag62
atp1697
Rp1698
sg92
g10
((lp1699
g371
ag339
ag266
ag496
ag302
ag62
atp1700
Rp1701
ssg1
((lp1702
g1605
ag1607
ag1604
atp1703
Rp1704
(dp1705
g9
g10
((lp1706
g253
ag348
ag29
ag181
ag35
ag299
ag384
ag281
atp1707
Rp1708
sg46
g10
((lp1709
g423
ag527
ag496
ag266
ag1093
atp1710
Rp1711
sg92
g10
((lp1712
g1102
ag371
ag502
ag527
ag816
ag281
ag288
ag266
ag1105
ag1114
ag423
ag378
ag496
ag1093
atp1713
Rp1714
ssg1
((lp1715
g122
ag123
ag124
a(I2
I4
tp1716
ag125
atp1717
Rp1718
(dp1719
g9
g10
((lp1720
g141
ag29
ag145
ag584
ag160
ag167
ag170
ag177
ag181
ag185
ag192
ag1193
ag587
ag581
ag201
ag204
ag599
ag207
ag572
ag575
ag578
ag848
ag1320
ag216
ag590
atp1721
Rp1722
sg46
g10
((lp1723
g223
ag446
atp1724
Rp1725
sg92
g10
((lp1726
g599
ag223
ag446
atp1727
Rp1728
ssg1
((lp1729
(I3
I1
tp1730
a(I2
I3
tp1731
a(I2
I1
tp1732
atp1733
Rp1734
(dp1735
g9
g10
((lp1736
g1
((lp1737
g914
atp1738
Rp1739
ag1
((lp1740
(I3
I1
tp1741
a(I2
I1
tp1742
atp1743
Rp1744
ag29
ag1
((lp1745
g1741
atp1746
Rp1747
ag1
((lp1748
g905
atp1749
Rp1750
ag1
((lp1751
g1741
a(I2
I3
tp1752
ag1742
atp1753
Rp1754
ag1
((lp1755
g904
ag905
atp1756
Rp1757
atp1758
Rp1759
sg46
g10
((lp1760
g418
ag1754
ag428
ag266
ag810
atp1761
Rp1762
sg92
g10
((lp1763
g1531
ag375
ag266
ag318
ag810
ag1754
ag428
ag470
ag418
ag1255
atp1764
Rp1765
ssg1
((lp1766
(I1
I2
tp1767
ag1072
ag1073
ag1074
a(I3
I4
tp1768
atp1769
Rp1770
(dp1771
g9
g10
((lp1772
g1271
ag141
ag29
ag1108
ag150
ag154
ag299
ag157
ag170
ag177
ag181
ag1084
ag1081
ag1296
ag1099
ag185
ag188
ag35
ag195
ag201
ag781
ag1111
ag210
ag216
ag1302
atp1773
Rp1774
sg46
g10
((lp1775
g232
ag1093
atp1776
Rp1777
sg92
g10
((lp1778
g1108
ag232
ag1093
atp1779
Rp1780
ssg1
((lp1781
(I2
I3
tp1782
ag1206
atp1783
Rp1784
(dp1785
g9
g10
((lp1786
g257
ag29
ag348
ag296
atp1787
Rp1788
sg46
g10
((lp1789
g266
ag911
ag810
ag428
ag71
ag62
atp1790
Rp1791
sg92
g10
((lp1792
g336
ag375
ag1219
ag266
ag318
ag911
ag381
ag354
ag1151
ag810
ag428
ag721
ag296
ag724
ag111
ag302
ag62
ag71
ag1255
ag368
atp1793
Rp1794
ssg1
((lp1795
g603
ag604
ag1518
ag605
ag606
atp1796
Rp1797
(dp1798
g9
g10
((lp1799
g257
ag29
ag145
ag651
ag584
ag625
ag714
ag26
ag769
ag772
ag931
ag761
ag613
ag628
ag973
ag616
ag188
ag982
ag619
ag622
ag946
ag784
ag575
ag213
ag631
atp1800
Rp1801
sg46
g10
((lp1802
g532
ag642
atp1803
Rp1804
sg92
g10
((lp1805
g651
ag532
ag642
atp1806
Rp1807
ssg1
((lp1808
g605
atp1809
Rp1810
(dp1811
g9
g10
((lp1812
g584
ag29
atp1813
Rp1814
sg46
g10
((lp1815
g831
ag223
ag901
ag446
ag639
ag437
ag810
ag911
ag428
ag532
ag642
ag418
atp1816
Rp1817
sg92
g10
((lp1818
g1531
ag842
ag455
ag845
ag810
ag599
ag1243
ag1219
ag464
ag651
ag584
ag625
ag532
ag1469
ag869
ag665
ag437
ag851
ag428
ag928
ag857
ag642
ag931
ag1320
ag613
ag467
ag970
ag470
ag973
ag831
ag976
ag668
ag639
ag1193
ag587
ag1151
ag940
ag418
ag619
ag863
ag1036
ag581
ag622
ag946
ag866
ag979
ag901
ag1249
ag446
ag572
ag911
ag575
ag662
ag578
ag223
ag848
ag648
ag949
ag1255
ag461
ag982
ag952
ag985
ag955
ag590
ag988
atp1819
Rp1820
ssg1
((lp1821
g121
ag122
ag123
ag124
atp1822
Rp1823
(dp1824
g9
g10
((lp1825
g185
ag188
ag170
ag141
ag177
ag29
ag181
ag157
ag210
ag150
ag154
ag195
ag216
ag201
atp1826
Rp1827
sg46
g10
((lp1828
g223
ag232
ag1093
atp1829
Rp1830
sg92
g10
((lp1831
g137
ag232
ag223
ag1108
ag157
ag1093
atp1832
Rp1833
ssg1
((lp1834
g999
ag1000
atp1835
Rp1836
(dp1837
g9
g10
((lp1838
g16
ag29
ag26
ag35
atp1839
Rp1840
sg46
g10
((lp1841
g53
ag62
ag89
ag80
ag71
ag836
atp1842
Rp1843
sg92
g10
((lp1844
g16
ag943
ag925
ag105
ag53
ag766
ag114
ag62
ag775
ag96
ag102
ag99
ag80
ag89
ag22
ag108
ag111
ag836
ag71
ag117
atp1845
Rp1846
ssg1
((lp1847
(I3
I4
tp1848
a(I3
I1
tp1849
ag1206
a(I2
I1
tp1850
atp1851
Rp1852
(dp1853
g9
g10
((lp1854
g185
ag452
ag408
ag253
ag275
ag411
ag141
ag29
ag181
ag1240
ag358
ag345
ag315
ag348
atp1855
Rp1856
sg46
g10
((lp1857
g423
ag428
ag437
atp1858
Rp1859
sg92
g10
((lp1860
g437
ag452
ag428
ag458
ag461
ag423
atp1861
Rp1862
ssg1
((lp1863
g1767
ag1073
ag1074
a(I1
I4
tp1864
ag1072
ag1768
atp1865
Rp1866
(dp1867
g9
g10
((lp1868
g137
ag1271
ag141
ag29
ag145
ag1108
ag232
ag150
ag154
ag299
ag157
ag160
ag164
ag167
ag170
ag174
ag177
ag181
ag1084
ag1081
ag1296
ag1099
ag185
ag188
ag192
ag35
ag195
ag198
ag201
ag204
ag207
ag781
ag1111
ag787
ag210
ag213
ag1299
ag875
ag216
ag1302
atp1869
Rp1870
sg46
g10
((lp1871
g232
atp1872
Rp1873
sg92
g10
((lp1874
g232
atp1875
Rp1876
ssg1
((lp1877
g959
ag963
ag962
atp1878
Rp1879
(dp1880
g9
g10
((lp1881
g408
ag662
ag665
ag141
ag29
ag578
ag358
ag584
atp1882
Rp1883
sg46
g10
((lp1884
g831
ag418
ag428
ag437
ag446
atp1885
Rp1886
sg92
g10
((lp1887
g831
ag976
ag446
ag845
ag662
ag437
ag455
ag418
ag428
ag857
ag461
ag464
ag467
ag470
atp1888
Rp1889
ssg1
((lp1890
(I1
I2
tp1891
ag1605
ag1604
atp1892
Rp1893
(dp1894
g9
g10
((lp1895
g188
ag781
ag1231
ag348
ag29
ag35
ag384
atp1896
Rp1897
sg46
g10
((lp1898
g527
ag71
ag80
ag1093
atp1899
Rp1900
sg92
g10
((lp1901
g1231
ag527
ag1105
ag550
ag80
ag1093
ag71
ag553
ag117
ag1237
atp1902
Rp1903
ssg1
((lp1904
g1181
ag1182
ag1185
ag1186
ag1184
atp1905
Rp1906
(dp1907
g9
g10
((lp1908
g141
ag29
ag145
ag150
ag154
ag584
ag164
ag167
ag869
ag170
ag174
ag851
ag613
ag188
ag1193
ag198
ag204
ag207
ag572
ag575
ag578
ag848
ag210
ag213
ag216
atp1909
Rp1910
sg46
g10
((lp1911
g639
ag223
atp1912
Rp1913
sg92
g10
((lp1914
g639
ag223
ag851
atp1915
Rp1916
ssg1
((lp1917
g999
ag1549
atp1918
Rp1919
(dp1920
g9
g10
((lp1921
g216
ag29
ag1084
ag35
atp1922
Rp1923
sg46
g10
((lp1924
g232
ag496
ag527
ag89
ag80
ag423
ag836
ag1093
atp1925
Rp1926
sg92
g10
((lp1927
g1102
ag1271
ag1296
ag496
ag89
ag547
ag1108
ag1093
ag925
ag1302
ag1084
ag1081
ag1234
ag1099
ag502
ag102
ag527
ag1274
ag1105
ag550
ag80
ag232
ag943
ag1246
ag836
ag816
ag423
ag1299
ag875
ag1111
ag1114
ag1237
atp1928
Rp1929
ssg1
((lp1930
g477
ag479
ag480
atp1931
Rp1932
(dp1933
g9
g10
((lp1934
g315
ag348
ag29
ag35
ag358
ag321
ag384
atp1935
Rp1936
sg46
g10
((lp1937
g423
ag266
ag496
ag62
atp1938
Rp1939
sg92
g10
((lp1940
g371
ag339
ag502
ag496
ag288
ag321
ag423
ag266
ag302
ag62
atp1941
Rp1942
ssg1
((lp1943
g959
ag961
ag962
ag963
atp1944
Rp1945
(dp1946
g9
g10
((lp1947
g358
ag167
ag572
ag575
ag141
ag662
ag29
ag578
ag145
ag857
ag665
ag979
ag408
ag584
atp1948
Rp1949
sg46
g10
((lp1950
g831
ag418
ag446
atp1951
Rp1952
sg92
g10
((lp1953
g831
ag446
ag845
ag857
ag418
ag467
atp1954
Rp1955
ssg1
((lp1956
g1518
ag606
atp1957
Rp1958
(dp1959
g9
g10
((lp1960
g145
ag761
ag257
ag29
atp1961
Rp1962
sg46
g10
((lp1963
g53
ag831
ag901
ag532
ag642
ag418
atp1964
Rp1965
sg92
g10
((lp1966
g53
ag831
ag901
ag842
ag642
ag845
ag784
ag970
ag418
ag928
ag955
ag863
ag769
ag931
ag532
ag651
ag778
ag761
ag544
ag973
atp1967
Rp1968
ssg1
((lp1969
(I3
I2
tp1970
a(I3
I1
tp1971
a(I4
I1
tp1972
a(I2
I1
tp1973
atp1974
Rp1975
(dp1976
g9
g10
((lp1977
g253
ag1317
ag315
ag275
ag1252
ag345
ag348
ag177
ag29
ag181
ag358
ag216
ag1225
ag1228
atp1978
Rp1979
sg46
g10
((lp1980
g423
ag496
ag437
atp1981
Rp1982
sg92
g10
((lp1983
g502
ag496
ag437
ag458
ag423
ag1228
atp1984
Rp1985
ssg1
((lp1986
g398
ag399
ag564
ag400
ag563
atp1987
Rp1988
(dp1989
g9
g10
((lp1990
g275
ag411
ag141
ag29
ag145
ag464
ag584
ag167
ag662
ag665
ag181
ag857
ag467
ag185
ag668
ag192
ag587
ag358
ag581
ag979
ag408
ag572
ag575
ag578
ag590
atp1991
Rp1992
sg46
g10
((lp1993
g418
ag446
atp1994
Rp1995
sg92
g10
((lp1996
g418
ag467
ag446
atp1997
Rp1998
ssg1
((lp1999
g399
ag398
ag1535
ag563
ag400
atp2000
Rp2001
(dp2002
g9
g10
((lp2003
g257
ag275
ag411
ag141
ag29
ag292
ag464
ag584
ag662
ag665
ag181
ag470
ag1531
ag185
ag976
ag668
ag587
ag358
ag365
ag408
ag578
ag982
ag985
ag590
ag988
atp2004
Rp2005
sg46
g10
((lp2006
g418
ag428
atp2007
Rp2008
sg92
g10
((lp2009
g418
ag428
ag470
atp2010
Rp2011
ssg1
((lp2012
g604
ag606
atp2013
Rp2014
(dp2015
g9
g10
((lp2016
g145
ag29
ag26
ag631
atp2017
Rp2018
sg46
g10
((lp2019
g53
ag831
ag901
ag639
ag89
ag532
ag642
ag836
atp2020
Rp2021
sg92
g10
((lp2022
g89
ag651
ag625
ag559
ag53
ag766
ag769
ag854
ag928
ag642
ag931
ag860
ag934
ag955
ag631
ag831
ag943
ag99
ag616
ag639
ag532
ag863
ag778
ag622
ag544
ag742
ag866
ag901
ag784
ag872
ag648
ag836
atp2023
Rp2024
ssg1
((lp2025
g398
ag399
atp2026
Rp2027
(dp2028
g9
g10
((lp2029
g185
ag141
ag29
ag181
atp2030
Rp2031
sg46
g10
((lp2032
g232
ag446
ag437
ag223
ag423
ag428
ag418
ag1093
atp2033
Rp2034
sg92
g10
((lp2035
g137
ag411
ag599
ag1108
ag464
ag157
ag1093
ag160
ag232
ag437
ag428
ag467
ag470
ag1099
ag185
ag192
ag452
ag1240
ag455
ag423
ag458
ag581
ag1222
ag201
ag473
ag446
ag223
ag1320
ag1114
ag461
ag418
ag590
atp2036
Rp2037
ssg1
((lp2038
g959
ag960
ag963
ag962
atp2039
Rp2040
(dp2041
g9
g10
((lp2042
g257
ag976
ag408
ag662
ag665
ag141
ag29
ag578
ag358
ag982
ag985
ag584
ag365
ag988
atp2043
Rp2044
sg46
g10
((lp2045
g831
ag418
ag428
atp2046
Rp2047
sg92
g10
((lp2048
g831
ag976
ag845
ag428
ag418
ag470
atp2049
Rp2050
ssg1
((lp2051
g1135
ag1137
ag1138
atp2052
Rp2053
(dp2054
g9
g10
((lp2055
g315
ag271
ag351
ag348
ag29
ag358
ag43
ag342
atp2056
Rp2057
sg46
g10
((lp2058
g911
ag810
ag496
ag62
ag266
atp2059
Rp2060
sg92
g10
((lp2061
g336
ag375
ag302
ag342
ag339
ag911
ag496
ag371
ag1151
ag810
ag724
ag329
ag62
ag266
atp2062
Rp2063
ssg1
((lp2064
g1118
atp2065
Rp2066
(dp2067
g9
g10
((lp2068
g29
ag1125
atp2069
Rp2070
sg46
g10
((lp2071
g53
ag896
ag232
ag80
ag639
ag527
ag89
ag223
ag916
ag532
ag642
ag1594
ag71
ag836
ag1093
atp2072
Rp2073
sg92
g10
((lp2074
g137
ag1271
ag541
ag89
ag515
ag547
ag1108
ag232
ag1436
ag154
ag651
ag851
ag80
ag157
ag1093
ag559
ag164
ag198
ag105
ag553
ag925
ag869
ag766
ag769
ag174
ag210
ag544
ag102
ag854
ag916
ag642
ag860
ag613
ag937
ag1296
ag96
ag538
ag99
ag616
ag1125
ag53
ag639
ag527
ag775
ag1105
ag550
ag532
ag1594
ag71
ag622
ag556
ag943
ag896
ag934
ag781
ag1111
ag787
ag223
ag648
ag1231
ag213
ag1299
ag875
ag836
ag117
ag1237
atp2075
Rp2076
ssg1
((lp2077
(I1
I2
tp2078
a(I4
I2
tp2079
a(I3
I2
tp2080
a(I4
I3
tp2081
atp2082
Rp2083
(dp2084
g9
g10
((lp2085
g1271
ag188
ag781
ag547
ag541
ag29
ag32
ag1274
ag35
ag515
ag1084
ag150
ag43
ag216
atp2086
Rp2087
sg46
g10
((lp2088
g527
ag80
ag89
atp2089
Rp2090
sg92
g10
((lp2091
g102
ag527
ag89
ag547
ag550
ag80
atp2092
Rp2093
ssg1
((lp2094
g1182
ag1185
ag1186
atp2095
Rp2096
(dp2097
g9
g10
((lp2098
g170
ag141
ag1193
ag29
ag578
ag584
ag216
atp2099
Rp2100
sg46
g10
((lp2101
g639
ag223
ag437
ag446
atp2102
Rp2103
sg92
g10
((lp2104
g455
ag223
ag446
ag639
ag1193
ag437
ag851
ag599
ag848
ag1320
atp2105
Rp2106
ssg1
((lp2107
g1135
ag1137
atp2108
Rp2109
(dp2110
g9
g10
((lp2111
g43
ag351
ag348
ag29
atp2112
Rp2113
sg46
g10
((lp2114
g266
ag911
ag496
ag527
ag810
ag80
ag71
ag62
atp2115
Rp2116
sg92
g10
((lp2117
g266
ag496
ag707
ag553
ag62
ag308
ag302
ag329
ag114
ag336
ag339
ag342
ag527
ag351
ag1151
ag810
ag550
ag80
ag721
ag724
ag71
ag361
ag368
ag371
ag375
ag378
ag1246
ag911
ag816
ag381
ag111
ag117
atp2118
Rp2119
ssg1
((lp2120
g3
ag5
atp2121
Rp2122
(dp2123
g9
g10
((lp2124
g43
ag29
ag32
ag35
atp2125
Rp2126
sg46
g10
((lp2127
g53
ag266
ag496
ag527
ag89
ag80
ag71
ag62
atp2128
Rp2129
sg92
g10
((lp2130
g22
ag108
ag541
ag496
ag89
ag547
ag266
ag553
ag62
ag53
ag311
ag105
ag114
ag96
ag339
ag99
ag102
ag527
ag32
ag302
ag1274
ag550
ag80
ag71
ag361
ag368
ag371
ag378
ag1246
ag816
ag111
ag117
atp2131
Rp2132
ssg1
((lp2133
g998
ag999
ag1000
atp2134
Rp2135
(dp2136
g9
g10
((lp2137
g16
ag26
ag188
ag781
ag29
ag775
ag35
ag628
atp2138
Rp2139
sg46
g10
((lp2140
g53
ag80
ag71
ag836
ag89
atp2141
Rp2142
sg92
g10
((lp2143
g943
ag96
ag925
ag53
ag766
ag775
ag102
ag80
ag89
ag105
ag99
ag71
ag836
ag117
atp2144
Rp2145
ssg1
((lp2146
g1135
ag1136
ag1137
ag1138
ag1462
atp2147
Rp2148
(dp2149
g9
g10
((lp2150
g257
ag1219
ag271
ag29
ag296
ag584
ag315
ag1469
ag665
ag325
ag336
ag342
ag348
ag351
ag354
ag1151
ag358
ag1036
ag365
ag1249
ag381
ag982
ag43
ag388
ag988
atp2151
Rp2152
sg46
g10
((lp2153
g911
ag810
atp2154
Rp2155
sg92
g10
((lp2156
g911
ag810
ag1151
atp2157
Rp2158
ssg1
((lp2159
g734
ag1028
ag1029
ag507
atp2160
Rp2161
(dp2162
g9
g10
((lp2163
g714
ag257
ag26
ag703
ag40
ag29
ag940
ag619
ag1036
ag982
ag43
ag325
ag584
ag946
atp2164
Rp2165
sg46
g10
((lp2166
g911
ag901
ag532
atp2167
Rp2168
sg92
g10
((lp2169
g901
ag911
ag928
ag940
ag532
ag949
atp2170
Rp2171
ssg1
((lp2172
g506
ag734
ag735
ag1028
ag507
ag1029
atp2173
Rp2174
(dp2175
g9
g10
((lp2176
g703
ag257
ag1036
ag29
ag145
ag651
ag584
ag625
ag559
ag714
ag26
ag769
ag544
ag772
ag325
ag931
ag928
ag761
ag613
ag628
ag973
ag538
ag616
ag188
ag982
ag940
ag43
ag619
ag40
ag778
ag622
ag556
ag946
ag742
ag515
ag784
ag575
ag213
ag532
ag631
atp2177
Rp2178
sg46
g10
((lp2179
g532
atp2180
Rp2181
sg92
g10
((lp2182
g532
atp2183
Rp2184
ssg1
((lp2185
g1972
ag1970
ag1971
a(I3
I4
tp2186
ag1973
atp2187
Rp2188
(dp2189
g9
g10
((lp2190
g253
ag275
ag411
ag141
ag29
ag1225
ag1228
ag315
ag170
ag177
ag181
ag185
ag345
ag348
ag452
ag1240
ag358
ag458
ag1222
ag201
ag473
ag1317
ag408
ag1252
ag216
atp2191
Rp2192
sg46
g10
((lp2193
g423
ag437
atp2194
Rp2195
sg92
g10
((lp2196
g423
ag437
ag458
atp2197
Rp2198
ssg1
((lp2199
(I1
I3
tp2200
a(I2
I3
tp2201
a(I2
I1
tp2202
atp2203
Rp2204
(dp2205
g9
g10
((lp2206
g922
ag1739
ag887
ag907
ag29
ag1750
ag1757
atp2207
Rp2208
sg46
g10
((lp2209
g831
ag907
ag901
ag911
ag62
atp2210
Rp2211
sg92
g10
((lp2212
g831
ag901
ag911
ag907
ag62
ag949
ag952
ag724
ag711
ag955
atp2213
Rp2214
ssg1
((lp2215
g1206
ag1850
atp2216
Rp2217
(dp2218
g9
g10
((lp2219
g358
ag315
ag348
ag29
atp2220
Rp2221
sg46
g10
((lp2222
g266
ag911
ag496
ag437
ag810
ag428
ag423
ag62
atp2223
Rp2224
sg92
g10
((lp2225
g1219
ag266
ag496
ag288
ag502
ag302
ag62
ag1228
ag315
ag318
ag437
ag428
ag321
ag329
ag336
ag339
ag342
ag345
ag452
ag354
ag1151
ag810
ag458
ag1243
ag724
ag371
ag375
ag1249
ag911
ag461
ag423
ag1255
atp2226
Rp2227
ssg1
((lp2228
(I1
I2
tp2229
a(I1
I3
tp2230
ag1359
ag1360
ag1357
ag1358
atp2231
Rp2232
(dp2233
g9
g10
((lp2234
g22
ag703
ag257
ag108
ag541
ag29
ag515
ag296
ag707
ag553
ag16
ag714
ag311
ag26
ag1231
ag772
ag325
ag105
ag114
ag628
ag96
ag538
ag188
ag348
ag351
ag32
ag775
ag35
ag721
ag40
ag71
ag361
ag556
ag368
ag781
ag381
ag43
ag111
ag384
ag117
atp2235
Rp2236
sg46
g10
((lp2237
g71
atp2238
Rp2239
sg92
g10
((lp2240
g71
atp2241
Rp2242
ssg1
((lp2243
g734
ag1028
ag507
ag735
atp2244
Rp2245
(dp2246
g9
g10
((lp2247
g714
ag257
ag778
ag26
ag703
ag784
ag29
ag145
ag325
ag40
ag43
ag742
ag761
ag631
atp2248
Rp2249
sg46
g10
((lp2250
g53
ag901
ag532
atp2251
Rp2252
sg92
g10
((lp2253
g53
ag901
ag532
ag928
ag778
ag544
atp2254
Rp2255
ssg1
((lp2256
g2201
ag2202
atp2257
Rp2258
(dp2259
g9
g10
((lp2260
g1750
ag1757
ag1739
ag29
atp2261
Rp2262
sg46
g10
((lp2263
g831
ag901
ag266
ag911
ag907
ag810
ag1754
ag428
ag418
ag62
atp2264
Rp2265
sg92
g10
((lp2266
g1531
ag1219
ag266
ag1754
ag711
ag62
ag302
ag1469
ag845
ag907
ag1757
ag428
ag970
ag470
ag831
ag976
ag354
ag1151
ag810
ag418
ag724
ag955
ag318
ag375
ag901
ag336
ag911
ag949
ag952
ag388
ag1255
ag988
atp2267
Rp2268
ssg1
((lp2269
g506
ag734
ag507
atp2270
Rp2271
(dp2272
g9
g10
((lp2273
g26
ag188
ag29
ag556
ag515
ag40
ag43
ag628
atp2274
Rp2275
sg46
g10
((lp2276
g53
ag80
ag71
ag532
ag89
atp2277
Rp2278
sg92
g10
((lp2279
g96
ag538
ag99
ag53
ag102
ag89
ag544
ag532
ag105
ag80
ag71
ag556
ag117
ag559
atp2280
Rp2281
ssg1
((lp2282
g604
ag1518
ag605
atp2283
Rp2284
(dp2285
g9
g10
((lp2286
g714
ag257
ag26
ag29
ag619
ag982
ag584
ag946
atp2287
Rp2288
sg46
g10
((lp2289
g831
ag911
ag901
ag532
ag642
atp2290
Rp2291
sg92
g10
((lp2292
g831
ag901
ag863
ag911
ag949
ag940
ag952
ag928
ag642
ag931
ag532
ag651
ag955
ag946
atp2293
Rp2294
ssg1
((lp2295
g1782
ag1849
ag1206
ag1850
atp2296
Rp2297
(dp2298
g9
g10
((lp2299
g253
ag257
ag315
ag318
ag275
ag345
ag348
ag29
ag181
ag354
ag358
ag292
ag296
ag365
atp2300
Rp2301
sg46
g10
((lp2302
g810
ag428
ag266
atp2303
Rp2304
sg92
g10
((lp2305
g375
ag266
ag318
ag810
ag428
ag1255
atp2306
Rp2307
ssg1
((lp2308
g604
ag820
ag605
ag606
atp2309
Rp2310
(dp2311
g9
g10
((lp2312
g866
ag167
ag26
ag572
ag575
ag141
ag29
ag578
ag145
ag872
ag619
ag584
ag625
ag631
atp2313
Rp2314
sg46
g10
((lp2315
g639
ag831
ag642
atp2316
Rp2317
sg92
g10
((lp2318
g866
ag831
ag863
ag639
ag648
ag642
atp2319
Rp2320
ssg1
((lp2321
g1605
ag1604
atp2322
Rp2323
(dp2324
g9
g10
((lp2325
g348
ag384
ag29
ag35
atp2326
Rp2327
sg46
g10
((lp2328
g266
ag496
ag527
ag80
ag423
ag71
ag62
ag1093
atp2329
Rp2330
sg92
g10
((lp2331
g1102
ag266
ag281
ag288
ag553
ag62
ag1093
ag302
ag1231
ag321
ag114
ag496
ag1234
ag339
ag502
ag527
ag1105
ag550
ag80
ag71
ag361
ag368
ag371
ag378
ag1246
ag816
ag1114
ag423
ag111
ag384
ag117
ag1237
atp2332
Rp2333
ssg1
((lp2334
g959
ag962
atp2335
Rp2336
(dp2337
g9
g10
((lp2338
g358
ag408
ag141
ag29
atp2339
Rp2340
sg46
g10
((lp2341
g831
ag446
ag437
ag423
ag428
ag418
atp2342
Rp2343
sg92
g10
((lp2344
g831
ag458
ag976
ag408
ag446
ag845
ag411
ag662
ag437
ag452
ag423
ag455
ag418
ag428
ag857
ag461
ag464
ag467
ag470
ag473
atp2345
Rp2346
ssg1
((lp2347
(I4
I2
tp2348
a(I3
I2
tp2349
a(I4
I1
tp2350
a(I4
I3
tp2351
atp2352
Rp2353
(dp2354
g9
g10
((lp2355
g361
ag1246
ag1274
ag1252
ag351
ag348
ag29
ag32
ag35
ag1084
ag43
ag384
ag216
ag1234
atp2356
Rp2357
sg46
g10
((lp2358
g527
ag496
ag80
atp2359
Rp2360
sg92
g10
((lp2361
g1246
ag816
ag496
ag527
ag550
ag80
atp2362
Rp2363
ssg1
((lp2364
g1072
ag1073
ag1074
ag1768
atp2365
Rp2366
(dp2367
g9
g10
((lp2368
g1099
ag185
ag170
ag1081
ag141
ag177
ag29
ag181
ag35
ag1084
ag299
ag216
ag201
ag1302
atp2369
Rp2370
sg46
g10
((lp2371
g423
ag232
ag1093
atp2372
Rp2373
sg92
g10
((lp2374
g1099
ag232
ag1108
ag1114
ag423
ag1093
atp2375
Rp2376
ssg1
((lp2377
g1767
ag1072
ag1073
ag1074
atp2378
Rp2379
(dp2380
g9
g10
((lp2381
g1271
ag188
ag781
ag1081
ag177
ag29
ag181
ag35
ag1084
ag1111
ag150
ag299
ag195
ag216
atp2382
Rp2383
sg46
g10
((lp2384
g527
ag232
ag1093
atp2385
Rp2386
sg92
g10
((lp2387
g232
ag527
ag1105
ag1108
ag1111
ag1093
atp2388
Rp2389
ssg1
((lp2390
g1263
ag1260
ag1261
ag1264
ag1262
atp2391
Rp2392
(dp2393
g9
g10
((lp2394
g1102
ag253
ag281
ag29
ag299
ag1225
ag308
ag177
ag181
ag1084
ag1081
ag1234
ag348
ag351
ag32
ag35
ag1274
ag361
ag378
ag1246
ag1252
ag816
ag43
ag384
ag216
atp2395
Rp2396
sg46
g10
((lp2397
g496
ag527
atp2398
Rp2399
sg92
g10
((lp2400
g527
ag496
ag816
atp2401
Rp2402
ssg1
((lp2403
g820
ag605
atp2404
Rp2405
(dp2406
g9
g10
((lp2407
g141
ag584
ag29
ag578
atp2408
Rp2409
sg46
g10
((lp2410
g831
ag446
ag639
ag437
ag223
ag428
ag642
ag418
atp2411
Rp2412
sg92
g10
((lp2413
g842
ag599
ag464
ag662
ag845
ag437
ag851
ag428
ag857
ag642
ag467
ag470
ag831
ag976
ag639
ag1193
ag455
ag863
ag581
ag866
ag446
ag572
ag869
ag578
ag223
ag848
ag648
ag1320
ag461
ag418
ag985
ag590
atp2414
Rp2415
ssg1
((lp2416
g604
ag820
ag606
atp2417
Rp2418
(dp2419
g9
g10
((lp2420
g167
ag26
ag141
ag29
ag145
ag872
ag631
atp2421
Rp2422
sg46
g10
((lp2423
g639
ag831
ag836
ag642
atp2424
Rp2425
sg92
g10
((lp2426
g866
ag831
ag863
ag854
ag639
ag872
ag648
ag642
ag860
ag836
atp2427
Rp2428
ssg1
((lp2429
g2229
ag1357
ag2230
ag1358
ag1360
atp2430
Rp2431
(dp2432
g9
g10
((lp2433
g22
ag541
ag29
ag515
ag707
ag553
ag16
ag26
ag1231
ag114
ag628
ag96
ag188
ag348
ag351
ag32
ag775
ag35
ag40
ag361
ag556
ag781
ag43
ag384
ag117
atp2434
Rp2435
sg46
g10
((lp2436
g71
ag80
atp2437
Rp2438
sg92
g10
((lp2439
g71
ag80
ag117
atp2440
Rp2441
ssg1
((lp2442
g1374
ag960
ag963
ag962
atp2443
Rp2444
(dp2445
g9
g10
((lp2446
g714
ag257
ag26
ag665
ag29
ag358
ag619
ag718
ag982
ag952
ag584
ag365
ag946
ag988
atp2447
Rp2448
sg46
g10
((lp2449
g831
ag911
ag901
atp2450
Rp2451
sg92
g10
((lp2452
g831
ag901
ag911
ag949
ag952
ag955
atp2453
Rp2454
ssg1
((lp2455
g1891
ag1605
ag1606
ag1604
atp2456
Rp2457
(dp2458
g9
g10
((lp2459
g1271
ag188
ag781
ag1252
ag1231
ag348
ag1237
ag29
ag35
ag1084
ag150
ag384
ag216
ag1234
atp2460
Rp2461
sg46
g10
((lp2462
g527
ag80
ag1093
atp2463
Rp2464
sg92
g10
((lp2465
g527
ag1105
ag550
ag80
ag1093
ag1237
atp2466
Rp2467
ssg1
((lp2468
g1605
ag1606
ag1607
ag1604
atp2469
Rp2470
(dp2471
g9
g10
((lp2472
g1102
ag253
ag1252
ag1081
ag348
ag177
ag29
ag181
ag35
ag1084
ag281
ag299
ag384
ag216
ag1225
ag1234
atp2473
Rp2474
sg46
g10
((lp2475
g423
ag496
ag527
ag1093
atp2476
Rp2477
sg92
g10
((lp2478
g1102
ag502
ag527
ag496
ag816
ag1105
ag1114
ag423
ag1093
atp2479
Rp2480
ssg1
((lp2481
(I2
I3
tp2482
atp2483
Rp2484
(dp2485
g9
g10
((lp2486
g1739
ag29
atp2487
Rp2488
sg46
g10
((lp2489
g53
ag831
ag901
ag266
ag911
ag907
ag810
ag1754
ag428
ag916
ag532
ag642
ag418
ag71
ag62
atp2490
Rp2491
sg92
g10
((lp2492
g703
ag1739
ag842
ag108
ag62
ag810
ag1754
ag1219
ag296
ag266
ag651
ag711
ag761
ag53
ag922
ag778
ag1469
ag845
ag907
ag302
ag1531
ag428
ag916
ag325
ag642
ag931
ag928
ag368
ag970
ag470
ag973
ag831
ag538
ag976
ag105
ag354
ag1151
ag940
ag418
ag311
ag532
ag721
ag863
ag1036
ag724
ag71
ag769
ag1757
ag544
ag946
ag318
ag955
ag375
ag901
ag336
ag784
ag911
ag949
ag381
ag982
ag952
ag985
ag111
ag388
ag1255
ag988
atp2493
Rp2494
ssg1
((lp2495
g1730
ag1732
atp2496
Rp2497
(dp2498
g9
g10
((lp2499
g1750
ag29
ag1747
ag1744
atp2500
Rp2501
sg46
g10
((lp2502
g1588
ag266
ag446
ag496
ag437
ag423
ag810
ag1754
ag428
ag418
atp2503
Rp2504
sg92
g10
((lp2505
g266
ag1744
ag411
ag496
ag288
ag810
ag1754
ag464
ag502
ag1228
ag318
ag437
ag428
ag329
ag467
ag470
ag1531
ag668
ag345
ag452
ag455
ag423
ag458
ag1243
ag473
ag371
ag375
ag1588
ag446
ag461
ag418
ag1255
atp2506
Rp2507
ssg1
((lp2508
(I3
I2
tp2509
a(I3
I1
tp2510
a(I2
I1
tp2511
a(I4
I3
tp2512
a(I4
I2
tp2513
a(I4
I1
tp2514
atp2515
Rp2516
(dp2517
g9
g10
((lp2518
g1102
ag253
ag271
ag275
ag281
ag29
ag288
ag299
ag502
ag1225
ag1228
ag308
ag315
ag177
ag181
ag1084
ag321
ag329
ag1081
ag496
ag1234
ag339
ag342
ag345
ag348
ag351
ag32
ag35
ag358
ag1274
ag361
ag371
ag1317
ag378
ag1246
ag1252
ag816
ag43
ag384
ag216
atp2519
Rp2520
sg46
g10
((lp2521
g496
atp2522
Rp2523
sg92
g10
((lp2524
g496
atp2525
Rp2526
ssg1
((lp2527
g1028
ag1029
ag507
atp2528
Rp2529
(dp2530
g9
g10
((lp2531
g257
ag1036
ag29
ag325
ag982
ag43
ag584
atp2532
Rp2533
sg46
g10
((lp2534
g911
ag810
ag901
ag532
atp2535
Rp2536
sg92
g10
((lp2537
g810
ag901
ag1469
ag911
ag928
ag940
ag532
ag1036
ag949
ag1151
atp2538
Rp2539
ssg1
((lp2540
g606
atp2541
Rp2542
(dp2543
g9
g10
((lp2544
g145
ag29
atp2545
Rp2546
sg46
g10
((lp2547
g53
ag831
ag901
ag232
ag446
ag639
ag89
ag223
ag532
ag642
ag418
ag836
atp2548
Rp2549
sg92
g10
((lp2550
g160
ag137
ag842
ag875
ag89
ag145
ag418
ag651
ag625
ag559
ag164
ag198
ag167
ag869
ag766
ag769
ag174
ag848
ag851
ag854
ag928
ag857
ag642
ag931
ag860
ag761
ag613
ag467
ag970
ag973
ag831
ag204
ag99
ag616
ag53
ag639
ag192
ag599
ag901
ag943
ag532
ag863
ag581
ag232
ag778
ag622
ag544
ag742
ag866
ag979
ag207
ag934
ag446
ag572
ag575
ag845
ag787
ag223
ag872
ag648
ag784
ag213
ag1299
ag955
ag631
ag836
atp2551
Rp2552
ssg1
((lp2553
g820
ag1518
ag605
ag606
atp2554
Rp2555
(dp2556
g9
g10
((lp2557
g257
ag842
ag167
ag572
ag575
ag141
ag29
ag578
ag145
ag982
ag985
ag584
ag761
ag973
atp2558
Rp2559
sg46
g10
((lp2560
g831
ag418
ag642
atp2561
Rp2562
sg92
g10
((lp2563
g831
ag842
ag863
ag845
ag642
ag418
atp2564
Rp2565
ssg1
((lp2566
g1972
ag1970
ag1971
ag2186
atp2567
Rp2568
(dp2569
g9
g10
((lp2570
g1225
ag185
ag253
ag170
ag141
ag177
ag29
ag181
ag1240
ag1252
ag1222
ag201
ag216
ag348
atp2571
Rp2572
sg46
g10
((lp2573
g423
ag437
ag1093
atp2574
Rp2575
sg92
g10
((lp2576
g437
ag458
ag423
ag1222
ag1114
ag1093
atp2577
Rp2578
ssg1
((lp2579
g1072
ag1074
atp2580
Rp2581
(dp2582
g9
g10
((lp2583
g299
ag29
ag181
ag35
atp2584
Rp2585
sg46
g10
((lp2586
g266
ag496
ag527
ag423
ag232
ag1093
atp2587
Rp2588
sg92
g10
((lp2589
g1099
ag1102
ag371
ag232
ag816
ag527
ag378
ag1081
ag281
ag288
ag1105
ag266
ag423
ag1108
ag1093
ag299
ag502
ag1111
ag496
ag1114
atp2590
Rp2591
ssg1
((lp2592
g1891
ag1606
ag1604
ag1607
ag1605
ag1608
atp2593
Rp2594
(dp2595
g9
g10
((lp2596
g1102
ag253
ag1271
ag141
ag29
ag1108
ag150
ag154
ag1222
ag299
ag157
ag1093
ag1234
ag170
ag1231
ag177
ag181
ag1225
ag1084
ag1081
ag281
ag1296
ag1099
ag185
ag188
ag348
ag1237
ag1240
ag1105
ag195
ag35
ag201
ag781
ag1252
ag1111
ag210
ag384
ag216
ag1114
ag1302
atp2597
Rp2598
sg46
g10
((lp2599
g1093
atp2600
Rp2601
sg92
g10
((lp2602
g1093
atp2603
Rp2604
ssg1
((lp2605
g122
ag123
ag124
ag125
atp2606
Rp2607
(dp2608
g9
g10
((lp2609
g204
ag185
ag207
ag167
ag170
ag192
ag141
ag177
ag29
ag181
ag145
ag216
ag201
ag160
atp2610
Rp2611
sg46
g10
((lp2612
g223
ag232
ag446
atp2613
Rp2614
sg92
g10
((lp2615
g137
ag232
ag223
ag446
ag599
ag160
atp2616
Rp2617
ssg1
((lp2618
g879
ag2482
atp2619
Rp2620
(dp2621
g9
g10
((lp2622
g922
ag1739
ag29
ag887
atp2623
Rp2624
sg46
g10
((lp2625
g53
ag831
ag901
ag911
ag907
ag916
ag532
ag642
ag71
ag62
atp2626
Rp2627
sg92
g10
((lp2628
g703
ag108
ag651
ag711
ag62
ag53
ag922
ag907
ag916
ag928
ag105
ag931
ag831
ag538
ag642
ag940
ag532
ag721
ag863
ag724
ag71
ag778
ag955
ag544
ag946
ag901
ag911
ag784
ag949
ag769
ag952
ag111
atp2629
Rp2630
ssg1
((lp2631
g3
ag754
ag5
atp2632
Rp2633
(dp2634
g9
g10
((lp2635
g257
ag311
ag29
ag32
ag35
ag325
ag43
atp2636
Rp2637
sg46
g10
((lp2638
g53
ag266
ag71
ag62
atp2639
Rp2640
sg92
g10
((lp2641
g53
ag311
ag108
ag105
ag266
ag111
ag302
ag62
ag71
ag368
atp2642
Rp2643
ssg1
((lp2644
g998
ag999
ag1549
ag1000
atp2645
Rp2646
(dp2647
g9
g10
((lp2648
g16
ag1196
ag1271
ag925
ag26
ag188
ag781
ag29
ag775
ag35
ag1084
ag150
ag216
ag628
atp2649
Rp2650
sg46
g10
((lp2651
g80
ag836
ag89
atp2652
Rp2653
sg92
g10
((lp2654
g943
ag925
ag102
ag89
ag80
ag836
atp2655
Rp2656
ssg1
((lp2657
(I2
I3
tp2658
ag1675
ag1676
a(I2
I4
tp2659
atp2660
Rp2661
(dp2662
g9
g10
((lp2663
g257
ag1469
ag271
ag665
ag1036
ag29
ag388
ag358
ag325
ag982
ag43
ag584
ag365
ag988
atp2664
Rp2665
sg46
g10
((lp2666
g911
ag810
ag901
atp2667
Rp2668
sg92
g10
((lp2669
g901
ag1469
ag911
ag1151
ag810
ag949
atp2670
Rp2671
ssg1
((lp2672
g1182
ag1185
atp2673
Rp2674
(dp2675
g9
g10
((lp2676
g170
ag216
ag141
ag29
atp2677
Rp2678
sg46
g10
((lp2679
g232
ag446
ag639
ag437
ag223
ag423
ag836
ag1093
atp2680
Rp2681
sg92
g10
((lp2682
g137
ag599
ag1108
ag154
ag157
ag1093
ag160
ag164
ag232
ag170
ag437
ag851
ag860
ag1296
ag1099
ag639
ag1193
ag455
ag458
ag1222
ag201
ag473
ag204
ag446
ag223
ag848
ag1320
ag423
ag875
ag836
ag1114
ag1302
atp2683
Rp2684
ssg1
((lp2685
g1181
ag1182
ag1184
atp2686
Rp2687
(dp2688
g9
g10
((lp2689
g207
ag188
ag198
ag29
ag145
ag150
ag213
ag216
atp2690
Rp2691
sg46
g10
((lp2692
g639
ag223
ag232
ag836
ag89
atp2693
Rp2694
sg92
g10
((lp2695
g164
ag943
ag875
ag232
ag137
ag639
ag836
ag89
ag851
ag223
ag1299
ag860
ag934
ag198
atp2696
Rp2697
ssg1
((lp2698
g603
ag820
ag606
atp2699
Rp2700
(dp2701
g9
g10
((lp2702
g167
ag188
ag141
ag29
ag145
ag210
ag213
ag174
atp2703
Rp2704
sg46
g10
((lp2705
g639
ag223
ag232
ag836
ag642
atp2706
Rp2707
sg92
g10
((lp2708
g164
ag137
ag232
ag869
ag639
ag174
ag851
ag223
ag854
ag648
ag642
ag860
ag875
ag836
atp2709
Rp2710
ssg1
((lp2711
g1970
ag2186
ag1971
ag1973
ag1972
a(I2
I4
tp2712
atp2713
Rp2714
(dp2715
g9
g10
((lp2716
g253
ag275
ag411
ag141
ag29
ag464
ag584
ag1225
ag1228
ag315
ag662
ag170
ag665
ag177
ag437
ag181
ag185
ag668
ag345
ag348
ag1193
ag587
ag452
ag1240
ag358
ag458
ag1243
ag1222
ag201
ag473
ag455
ag1317
ag408
ag1249
ag1252
ag578
ag1320
ag461
ag216
ag590
atp2717
Rp2718
sg46
g10
((lp2719
g437
atp2720
Rp2721
sg92
g10
((lp2722
g437
atp2723
Rp2724
ssg1
((lp2725
g603
ag604
ag606
ag1518
ag820
ag605
atp2726
Rp2727
(dp2728
g9
g10
((lp2729
g257
ag842
ag141
ag29
ag145
ag651
ag584
ag761
ag714
ag167
ag26
ag869
ag625
ag174
ag648
ag854
ag772
ag642
ag931
ag613
ag628
ag631
ag769
ag616
ag188
ag619
ag863
ag622
ag946
ag866
ag784
ag575
ag572
ag578
ag872
ag210
ag982
ag213
ag985
ag973
atp2730
Rp2731
sg46
g10
((lp2732
g642
atp2733
Rp2734
sg92
g10
((lp2735
g642
atp2736
Rp2737
ssg1
((lp2738
g797
ag798
ag799
a(I2
I1
tp2739
atp2740
Rp2741
(dp2742
g9
g10
((lp2743
g253
ag315
ag271
ag275
ag345
ag348
ag29
ag181
ag358
ag351
ag308
ag43
ag342
ag329
atp2744
Rp2745
sg46
g10
((lp2746
g810
ag496
ag266
atp2747
Rp2748
sg92
g10
((lp2749
g371
ag375
ag266
ag496
ag810
ag329
atp2750
Rp2751
ssg1
((lp2752
g1357
ag2230
ag1358
ag1360
atp2753
Rp2754
(dp2755
g9
g10
((lp2756
g16
ag22
ag361
ag26
ag351
ag348
ag29
ag32
ag35
ag40
ag43
ag707
ag384
ag114
atp2757
Rp2758
sg46
g10
((lp2759
g62
ag71
ag80
atp2760
Rp2761
sg92
g10
((lp2762
g62
ag80
ag111
ag114
ag71
ag117
atp2763
Rp2764
ssg1
((lp2765
g752
ag3
ag4
ag5
atp2766
Rp2767
(dp2768
g9
g10
((lp2769
g16
ag22
ag26
ag188
ag781
ag541
ag29
ag32
ag775
ag556
ag515
ag40
ag43
ag96
ag35
ag628
atp2770
Rp2771
sg46
g10
((lp2772
g53
ag71
ag80
ag89
atp2773
Rp2774
sg92
g10
((lp2775
g96
ag53
ag99
ag102
ag89
ag80
ag105
ag71
ag117
atp2776
Rp2777
ssg1
((lp2778
g1182
ag1185
ag1184
atp2779
Rp2780
(dp2781
g9
g10
((lp2782
g204
ag207
ag167
ag170
ag141
ag29
ag145
ag216
atp2783
Rp2784
sg46
g10
((lp2785
g639
ag223
ag232
ag836
ag446
atp2786
Rp2787
sg92
g10
((lp2788
g204
ag164
ag232
ag223
ag446
ag137
ag639
ag851
ag599
ag848
ag860
ag875
ag836
ag160
atp2789
Rp2790
ssg1
((lp2791
g477
a(I3
I2
tp2792
ag478
ag479
ag480
atp2793
Rp2794
(dp2795
g9
g10
((lp2796
g1102
ag253
ag275
ag281
ag29
ag288
ag299
ag1225
ag1228
ag315
ag177
ag181
ag1084
ag321
ag1081
ag1234
ag502
ag345
ag348
ag35
ag358
ag1317
ag1252
ag384
ag216
atp2797
Rp2798
sg46
g10
((lp2799
g423
ag496
atp2800
Rp2801
sg92
g10
((lp2802
g423
ag496
ag502
atp2803
Rp2804
ssg1
((lp2805
g2078
ag2079
ag2080
a(I1
I3
tp2806
ag2081
atp2807
Rp2808
(dp2809
g9
g10
((lp2810
g22
ag1271
ag541
ag29
ag515
ag547
ag150
ag16
ag925
ag26
ag1084
ag628
ag96
ag188
ag102
ag32
ag775
ag35
ag1274
ag40
ag556
ag1196
ag781
ag43
ag216
atp2811
Rp2812
sg46
g10
((lp2813
g80
ag89
atp2814
Rp2815
sg92
g10
((lp2816
g102
ag80
ag89
atp2817
Rp2818
ssg1
((lp2819
g398
ag399
ag564
atp2820
Rp2821
(dp2822
g9
g10
((lp2823
g185
ag167
ag192
ag141
ag29
ag181
ag145
atp2824
Rp2825
sg46
g10
((lp2826
g418
ag223
ag232
ag446
atp2827
Rp2828
sg92
g10
((lp2829
g137
ag232
ag223
ag446
ag192
ag599
ag418
ag581
ag467
ag160
atp2830
Rp2831
ssg1
((lp2832
g1848
ag1849
ag1206
atp2833
Rp2834
(dp2835
g9
g10
((lp2836
g253
ag185
ag141
ag29
ag181
ag1240
ag348
atp2837
Rp2838
sg46
g10
((lp2839
g423
ag428
ag437
ag1093
atp2840
Rp2841
sg92
g10
((lp2842
g1093
ag437
ag452
ag1240
ag428
ag458
ag461
ag423
ag1222
ag1114
atp2843
Rp2844
ssg1
((lp2845
g797
ag2739
a(I2
I3
tp2846
ag799
ag798
a(I2
I4
tp2847
atp2848
Rp2849
(dp2850
g9
g10
((lp2851
g253
ag257
ag1219
ag271
ag275
ag29
ag810
ag292
ag296
ag342
ag584
ag308
ag315
ag1469
ag665
ag181
ag325
ag329
ag1531
ag668
ag345
ag348
ag587
ag354
ag1151
ag358
ag351
ag1036
ag1243
ag365
ag318
ag375
ag1249
ag336
ag381
ag982
ag43
ag388
ag1255
ag988
atp2852
Rp2853
sg46
g10
((lp2854
g810
atp2855
Rp2856
sg92
g10
((lp2857
g810
atp2858
Rp2859
ssg1
((lp2860
g2079
ag2080
ag2081
atp2861
Rp2862
(dp2863
g9
g10
((lp2864
g1274
ag29
ag32
ag35
ag1084
ag43
ag216
atp2865
Rp2866
sg46
g10
((lp2867
g527
ag496
ag80
ag89
atp2868
Rp2869
sg92
g10
((lp2870
g1246
ag547
ag102
ag527
ag496
ag816
ag89
ag1274
ag550
ag80
atp2871
Rp2872
ssg1
((lp2873
g1891
ag1605
ag1606
ag1607
ag1604
atp2874
Rp2875
(dp2876
g9
g10
((lp2877
g1102
ag253
ag1271
ag281
ag29
ag150
ag299
ag1225
ag1231
ag177
ag181
ag1084
ag1081
ag1234
ag188
ag348
ag35
ag1105
ag195
ag781
ag1252
ag216
ag384
ag1111
ag1237
atp2878
Rp2879
sg46
g10
((lp2880
g527
ag1093
atp2881
Rp2882
sg92
g10
((lp2883
g1105
ag527
ag1093
atp2884
Rp2885
ssg1
((lp2886
g1135
ag1343
ag1136
ag1137
atp2887
Rp2888
(dp2889
g9
g10
((lp2890
g381
ag714
ag257
ag26
ag703
ag351
ag348
ag29
ag325
ag721
ag296
ag40
ag43
ag707
atp2891
Rp2892
sg46
g10
((lp2893
g911
ag71
ag62
atp2894
Rp2895
sg92
g10
((lp2896
g911
ag721
ag724
ag111
ag62
ag71
atp2897
Rp2898
ssg1
((lp2899
g1849
ag1206
a(I2
I4
tp2900
ag1850
atp2901
Rp2902
(dp2903
g9
g10
((lp2904
g253
ag668
ag275
ag665
ag348
ag1249
ag29
ag181
ag358
ag345
ag1243
ag315
ag584
ag587
atp2905
Rp2906
sg46
g10
((lp2907
g810
ag428
ag437
atp2908
Rp2909
sg92
g10
((lp2910
g437
ag810
ag428
ag461
ag1243
ag1255
atp2911
Rp2912
ssg1
((lp2913
g243
ag239
ag244
ag242
atp2914
Rp2915
(dp2916
g9
g10
((lp2917
g253
ag384
ag378
ag308
ag351
ag348
ag29
ag181
ag32
ag299
ag43
ag35
ag281
ag361
atp2918
Rp2919
sg46
g10
((lp2920
g527
ag496
ag266
atp2921
Rp2922
sg92
g10
((lp2923
g371
ag266
ag527
ag496
ag816
ag378
atp2924
Rp2925
ssg1
((lp2926
g734
ag507
ag735
atp2927
Rp2928
(dp2929
g9
g10
((lp2930
g26
ag29
ag145
ag40
ag43
ag742
ag631
atp2931
Rp2932
sg46
g10
((lp2933
g53
ag901
ag532
ag89
atp2934
Rp2935
sg92
g10
((lp2936
g53
ag742
ag99
ag901
ag89
ag532
ag928
ag778
ag544
ag559
atp2937
Rp2938
ssg1
((lp2939
g998
ag999
ag1549
ag1000
ag1001
atp2940
Rp2941
(dp2942
g9
g10
((lp2943
g1271
ag29
ag145
ag150
ag16
ag925
ag26
ag766
ag1084
ag934
ag628
ag631
ag616
ag188
ag775
ag35
ag198
ag943
ag1196
ag207
ag781
ag787
ag213
ag1299
ag216
atp2944
Rp2945
sg46
g10
((lp2946
g836
ag89
atp2947
Rp2948
sg92
g10
((lp2949
g943
ag836
ag89
atp2950
Rp2951
ssg1
((lp2952
(I1
I3
tp2953
a(I1
I4
tp2954
ag2658
ag1676
ag1675
ag2659
atp2955
Rp2956
(dp2957
g9
g10
((lp2958
g703
ag257
ag271
ag665
ag1036
ag29
ag145
ag584
ag625
ag714
ag711
ag26
ag761
ag325
ag931
ag928
ag970
ag973
ag979
ag982
ag940
ag952
ag619
ag718
ag40
ag778
ag365
ag946
ag742
ag955
ag358
ag901
ag1469
ag784
ag949
ag575
ag43
ag631
ag388
ag988
atp2959
Rp2960
sg46
g10
((lp2961
g901
atp2962
Rp2963
sg92
g10
((lp2964
g901
atp2965
Rp2966
ssg1
((lp2967
g1181
ag1182
ag1183
ag1184
atp2968
Rp2969
(dp2970
g9
g10
((lp2971
g1196
ag207
ag26
ag188
ag198
ag616
ag29
ag145
ag150
ag213
ag934
ag216
ag628
ag631
atp2972
Rp2973
sg46
g10
((lp2974
g639
ag836
ag89
atp2975
Rp2976
sg92
g10
((lp2977
g943
ag639
ag89
ag860
ag934
ag836
atp2978
Rp2979
ssg1
((lp2980
g1306
ag1307
a(I1
I4
tp2981
ag1310
ag1308
ag1309
atp2982
Rp2983
(dp2984
g9
g10
((lp2985
g275
ag455
ag411
ag141
ag29
ag145
ag464
ag584
ag160
ag167
ag662
ag170
ag665
ag177
ag181
ag857
ag467
ag185
ag668
ag192
ag599
ag1193
ag587
ag358
ag581
ag201
ag473
ag204
ag979
ag207
ag1317
ag408
ag446
ag572
ag575
ag578
ag848
ag1320
ag216
ag590
atp2986
Rp2987
sg46
g10
((lp2988
g446
atp2989
Rp2990
sg92
g10
((lp2991
g446
atp2992
Rp2993
ssg1
((lp2994
g1206
ag2900
ag1850
atp2995
Rp2996
(dp2997
g9
g10
((lp2998
g315
ag1249
ag665
ag348
ag29
ag358
ag584
atp2999
Rp3000
sg46
g10
((lp3001
g911
ag810
ag428
ag437
atp3002
Rp3003
sg92
g10
((lp3004
g1219
ag1249
ag911
ag437
ag1151
ag810
ag428
ag461
ag1243
ag1255
atp3005
Rp3006
ssg1
((lp3007
g960
ag961
ag962
ag963
atp3008
Rp3009
(dp3010
g9
g10
((lp3011
g358
ag257
ag988
ag979
ag575
ag665
ag29
ag145
ag365
ag982
ag584
ag761
ag970
ag973
atp3012
Rp3013
sg46
g10
((lp3014
g831
ag418
ag901
atp3015
Rp3016
sg92
g10
((lp3017
g831
ag901
ag845
ag418
ag955
ag970
atp3018
Rp3019
ssg1
((lp3020
g2953
ag2658
ag1675
ag1676
ag2659
atp3021
Rp3022
(dp3023
g9
g10
((lp3024
g703
ag257
ag271
ag1036
ag29
ag584
ag714
ag711
ag26
ag665
ag325
ag982
ag358
ag43
ag619
ag40
ag365
ag946
ag1469
ag940
ag949
ag718
ag952
ag388
ag988
atp3025
Rp3026
sg46
g10
((lp3027
g911
ag901
atp3028
Rp3029
sg92
g10
((lp3030
g911
ag901
ag949
atp3031
Rp3032
ssg1
((lp3033
g1848
ag1849
ag1206
ag2900
ag1850
atp3034
Rp3035
(dp3036
g9
g10
((lp3037
g253
ag275
ag411
ag141
ag29
ag464
ag584
ag315
ag662
ag665
ag181
ag185
ag668
ag345
ag348
ag587
ag452
ag1240
ag358
ag1243
ag408
ag1249
ag578
ag461
ag590
atp3038
Rp3039
sg46
g10
((lp3040
g428
ag437
atp3041
Rp3042
sg92
g10
((lp3043
g428
ag437
ag461
atp3044
Rp3045
ssg1
((lp3046
g2792
a(I3
I4
tp3047
ag478
ag480
ag477
ag479
atp3048
Rp3049
(dp3050
g9
g10
((lp3051
g1102
ag253
ag275
ag411
ag141
ag29
ag288
ag299
ag1225
ag1228
ag315
ag170
ag177
ag181
ag1084
ag321
ag1081
ag281
ag1234
ag1099
ag185
ag502
ag345
ag348
ag452
ag35
ag358
ag458
ag1222
ag1240
ag201
ag473
ag1317
ag408
ag1252
ag423
ag384
ag216
ag1114
ag1302
atp3052
Rp3053
sg46
g10
((lp3054
g423
atp3055
Rp3056
sg92
g10
((lp3057
g423
atp3058
Rp3059
ssg1
((lp3060
g820
ag1518
ag605
atp3061
Rp3062
(dp3063
g9
g10
((lp3064
g257
ag141
ag29
ag578
ag982
ag985
ag584
atp3065
Rp3066
sg46
g10
((lp3067
g831
ag418
ag428
ag642
atp3068
Rp3069
sg92
g10
((lp3070
g831
ag842
ag863
ag845
ag428
ag976
ag642
ag418
ag985
ag470
atp3071
Rp3072
ssg1
((lp3073
g1357
ag1358
ag2230
ag1359
ag1360
atp3074
Rp3075
(dp3076
g9
g10
((lp3077
g22
ag703
ag257
ag108
ag29
ag296
ag707
ag16
ag714
ag311
ag26
ag325
ag114
ag348
ag351
ag32
ag35
ag721
ag40
ag361
ag368
ag381
ag43
ag111
ag384
atp3078
Rp3079
sg46
g10
((lp3080
g71
ag62
atp3081
Rp3082
sg92
g10
((lp3083
g111
ag62
ag71
atp3084
Rp3085
ssg1
((lp3086
g2658
ag1675
ag1676
atp3087
Rp3088
(dp3089
g9
g10
((lp3090
g257
ag271
ag388
ag29
ag358
ag325
ag43
ag365
atp3091
Rp3092
sg46
g10
((lp3093
g911
ag810
ag901
ag62
ag266
atp3094
Rp3095
sg92
g10
((lp3096
g336
ag375
ag901
ag302
ag266
ag1469
ag911
ag62
ag1151
ag810
ag949
ag724
ag711
ag388
atp3097
Rp3098
ssg1
((lp3099
g1782
ag1849
ag1206
ag2900
ag1850
atp3100
Rp3101
(dp3102
g9
g10
((lp3103
g253
ag257
ag1219
ag275
ag29
ag292
ag296
ag584
ag315
ag318
ag665
ag181
ag1531
ag668
ag345
ag348
ag587
ag354
ag358
ag1243
ag365
ag1249
ag982
ag1255
ag988
atp3104
Rp3105
sg46
g10
((lp3106
g810
ag428
atp3107
Rp3108
sg92
g10
((lp3109
g810
ag428
ag1255
atp3110
Rp3111
ssg1
((lp3112
g960
ag963
ag962
atp3113
Rp3114
(dp3115
g9
g10
((lp3116
g257
ag665
ag29
ag358
ag982
ag584
ag365
ag988
atp3117
Rp3118
sg46
g10
((lp3119
g831
ag901
ag911
ag810
ag428
ag418
atp3120
Rp3121
sg92
g10
((lp3122
g831
ag1531
ag901
ag976
ag1469
ag845
ag911
ag1151
ag810
ag418
ag428
ag1219
ag949
ag1255
ag952
ag955
ag970
ag470
ag988
atp3123
Rp3124
ssg1
((lp3125
g398
ag1535
ag563
ag400
atp3126
Rp3127
(dp3128
g9
g10
((lp3129
g1531
ag257
ag668
ag275
ag665
ag29
ag181
ag358
ag292
ag982
ag584
ag365
ag587
ag988
atp3130
Rp3131
sg46
g10
((lp3132
g418
ag810
ag428
atp3133
Rp3134
sg92
g10
((lp3135
g1531
ag810
ag428
ag470
ag418
ag1255
atp3136
Rp3137
ssg1
((lp3138
g1782
ag1206
ag2900
ag1850
atp3139
Rp3140
(dp3141
g9
g10
((lp3142
g257
ag1219
ag315
ag1249
ag665
ag348
ag29
ag354
ag358
ag296
ag982
ag584
ag365
ag988
atp3143
Rp3144
sg46
g10
((lp3145
g911
ag810
ag428
atp3146
Rp3147
sg92
g10
((lp3148
g1219
ag911
ag1151
ag810
ag428
ag1255
atp3149
Rp3150
ssg1
((lp3151
g1181
ag1182
ag1185
atp3152
Rp3153
(dp3154
g9
g10
((lp3155
g188
ag170
ag141
ag29
ag210
ag150
ag154
ag216
atp3156
Rp3157
sg46
g10
((lp3158
g639
ag223
ag232
ag836
ag1093
atp3159
Rp3160
sg92
g10
((lp3161
g164
ag137
ag232
ag639
ag851
ag223
ag1108
ag154
ag860
ag875
ag836
ag157
ag1093
ag1296
atp3162
Rp3163
ssg1
((lp3164
g820
atp3165
Rp3166
(dp3167
g9
g10
((lp3168
g141
ag29
atp3169
Rp3170
sg46
g10
((lp3171
g831
ag232
ag446
ag639
ag437
ag223
ag423
ag428
ag642
ag418
ag836
ag1093
atp3172
Rp3173
sg92
g10
((lp3174
g137
ag842
ag185
ag845
ag141
ag599
ag1108
ag154
ag1222
ag464
ag157
ag1093
ag160
ag164
ag167
ag869
ag170
ag174
ag848
ag437
ag210
ag851
ag854
ag428
ag857
ag642
ag411
ag860
ag467
ag470
ag1296
ag831
ag204
ag976
ag639
ag192
ag1193
ag452
ag1240
ag455
ag423
ag458
ag863
ag581
ag232
ag201
ag473
ag866
ag408
ag446
ag572
ag1099
ag662
ag578
ag223
ag872
ag648
ag1320
ag1114
ag461
ag418
ag985
ag875
ag836
ag590
ag1302
atp3175
Rp3176
ssg29
(dp3177
g9
g10
((lp3178
g29
atp3179
Rp3180
sg46
g10
((lp3181
g266
ag496
ag89
ag1754
ag62
ag1093
ag53
ag232
ag907
ag437
ag428
ag916
ag642
ag831
ag639
ag527
ag810
ag423
ag532
ag1594
ag71
ag896
ag901
ag1588
ag446
ag911
ag223
ag418
ag80
ag836
atp3182
Rp3183
sg92
g10
((lp3184
g22
ag137
ag266
ag411
ag288
ag515
ag1243
ag464
ag302
ag62
ag559
ag53
ag308
ag167
ag887
ag845
ag766
ag541
ag928
ag105
ag613
ag1081
ag937
ag336
ag99
ag979
ag639
ag348
ag527
ag35
ag455
ag619
ag724
ag368
ag955
ag544
ag473
ag371
ag896
ag781
ag911
ag784
ag1249
ag210
ag575
ag418
ag1299
ag973
ag1439
ag1114
ag1302
ag703
ag1271
ag108
ag271
ag339
ag665
ag599
ag1754
ag1108
ag154
ag651
ag584
ag662
ag16
ag232
ag869
ag1231
ag851
ag1084
ag321
ag857
ag1228
ag467
ag470
ag631
ag185
ag976
ag342
ag1125
ag547
ag1193
ag351
ag32
ag775
ag452
ag940
ag532
ag458
ag315
ag71
ag778
ag198
ag556
ag946
ag318
ag204
ag384
ag408
ag1246
ag1099
ag1111
ag816
ag578
ag848
ag1757
ag117
ag213
ag1237
ag1102
ag1739
ag1744
ag496
ag40
ag1225
ag145
ag1219
ag1222
ag299
ag1093
ag160
ag922
ag311
ag925
ag1469
ag170
ag622
ag174
ag437
ag642
ag625
ag329
ag114
ag281
ag96
ag866
ag502
ag102
ag192
ag1240
ag810
ag1274
ag1105
ag721
ag581
ag378
ag742
ag943
ag901
ag934
ag446
ag572
ag970
ag1151
ag949
ag461
ag423
ag985
ag111
ag388
ag1255
ag988
ag1531
ag842
ag296
ag141
ag29
ag89
ag1436
ag707
ag711
ag761
ag164
ag553
ag1234
ag872
ag907
ag1600
ag1747
ag157
ag854
ag428
ag916
ag325
ag345
ag931
ag860
ag1296
ag831
ag538
ag668
ag616
ag253
ag587
ag354
ag1750
ag952
ag550
ag80
ag863
ag1036
ag1594
ag361
ag201
ag375
ag207
ag1588
ag1252
ag982
ag787
ag223
ag648
ag1320
ag381
ag769
ag43
ag875
ag836
ag590
atp3185
Rp3186
ssg1
((lp3187
g2078
ag2080
ag2806
a(I1
I4
tp3188
ag2081
ag2079
atp3189
Rp3190
(dp3191
g9
g10
((lp3192
g22
ag1271
ag541
ag29
ag89
ag515
ag547
ag150
ag559
ag16
ag925
ag26
ag766
ag1084
ag934
ag628
ag631
ag96
ag99
ag616
ag188
ag102
ag32
ag775
ag35
ag213
ag1274
ag40
ag198
ag556
ag742
ag943
ag1196
ag207
ag781
ag145
ag787
ag43
ag1299
ag216
atp3193
Rp3194
sg46
g10
((lp3195
g89
atp3196
Rp3197
sg92
g10
((lp3198
g89
atp3199
Rp3200
ssg1
((lp3201
g1427
ag1428
atp3202
Rp3203
(dp3204
g9
g10
((lp3205
g1439
ag1436
ag29
ag1125
atp3206
Rp3207
sg46
g10
((lp3208
g896
ag232
ag639
ag527
ag89
ag223
ag80
ag1594
ag836
ag1093
atp3209
Rp3210
sg92
g10
((lp3211
g137
ag1271
ag89
ag547
ag1108
ag232
ag1436
ag154
ag157
ag1093
ag164
ag925
ag851
ag102
ag860
ag934
ag1296
ag639
ag527
ag1105
ag550
ag80
ag1594
ag198
ag943
ag896
ag1111
ag223
ag1299
ag875
ag836
ag1237
atp3212
Rp3213
ssg1
((lp3214
g1343
ag1135
ag1137
atp3215
Rp3216
(dp3217
g9
g10
((lp3218
g26
ag29
ag348
ag351
ag40
ag43
ag707
atp3219
Rp3220
sg46
g10
((lp3221
g911
ag62
ag71
ag80
atp3222
Rp3223
sg92
g10
((lp3224
g911
ag62
ag80
ag721
ag724
ag707
ag111
ag114
ag71
ag117
atp3225
Rp3226
ssg1
((lp3227
g2953
ag2658
ag1675
ag1676
atp3228
Rp3229
(dp3230
g9
g10
((lp3231
g714
ag257
ag26
ag271
ag703
ag718
ag29
ag388
ag358
ag325
ag40
ag43
ag711
ag365
atp3232
Rp3233
sg46
g10
((lp3234
g911
ag901
ag62
atp3235
Rp3236
sg92
g10
((lp3237
g901
ag911
ag949
ag724
ag711
ag62
atp3238
Rp3239
ssg1
((lp3240
g604
ag605
ag606
atp3241
Rp3242
(dp3243
g9
g10
((lp3244
g26
ag575
ag29
ag145
ag619
ag584
ag625
ag631
atp3245
Rp3246
sg46
g10
((lp3247
g639
ag831
ag901
ag532
ag642
atp3248
Rp3249
sg92
g10
((lp3250
g866
ag831
ag901
ag642
ag639
ag625
ag648
ag928
ag863
ag931
ag532
ag651
ag622
ag955
atp3251
Rp3252
ssg1
((lp3253
g1181
ag1182
ag1185
ag1184
atp3254
Rp3255
(dp3256
g9
g10
((lp3257
g204
ag164
ag207
ag167
ag188
ag170
ag198
ag141
ag29
ag145
ag210
ag150
ag154
ag213
ag216
ag174
atp3258
Rp3259
sg46
g10
((lp3260
g639
ag223
ag232
ag836
atp3261
Rp3262
sg92
g10
((lp3263
g164
ag137
ag232
ag639
ag851
ag223
ag860
ag875
ag836
atp3264
Rp3265
ssg1
((lp3266
g2229
ag1357
ag1358
ag1360
atp3267
Rp3268
(dp3269
g9
g10
((lp3270
g361
ag553
ag188
ag781
ag351
ag348
ag541
ag29
ag32
ag35
ag515
ag1231
ag43
ag384
atp3271
Rp3272
sg46
g10
((lp3273
g527
ag71
ag80
atp3274
Rp3275
sg92
g10
((lp3276
g527
ag550
ag80
ag71
ag553
ag117
atp3277
Rp3278
ssg1
((lp3279
g1605
ag1606
ag1604
atp3280
Rp3281
(dp3282
g9
g10
((lp3283
g1252
ag348
ag29
ag35
ag1084
ag384
ag216
ag1234
atp3284
Rp3285
sg46
g10
((lp3286
g423
ag527
ag496
ag80
ag1093
atp3287
Rp3288
sg92
g10
((lp3289
g1102
ag502
ag1246
ag527
ag496
ag816
ag1105
ag550
ag80
ag1114
ag423
ag1234
ag1093
ag1237
atp3290
Rp3291
ssg1
((lp3292
g1182
ag1185
ag1186
ag1184
atp3293
Rp3294
(dp3295
g9
g10
((lp3296
g204
ag207
ag167
ag572
ag170
ag575
ag141
ag1193
ag29
ag578
ag145
ag848
ag584
ag216
atp3297
Rp3298
sg46
g10
((lp3299
g639
ag223
ag446
atp3300
Rp3301
sg92
g10
((lp3302
g223
ag446
ag639
ag851
ag599
ag848
atp3303
Rp3304
ssg1
((lp3305
g963
ag962
atp3306
Rp3307
(dp3308
g9
g10
((lp3309
g358
ag665
ag584
ag29
atp3310
Rp3311
sg46
g10
((lp3312
g831
ag901
ag446
ag911
ag437
ag810
ag428
ag418
atp3313
Rp3314
sg92
g10
((lp3315
g1531
ag1219
ag455
ag464
ag1469
ag662
ag665
ag437
ag428
ag857
ag467
ag970
ag470
ag831
ag976
ag668
ag1151
ag810
ag418
ag1243
ag955
ag979
ag901
ag446
ag1249
ag911
ag845
ag949
ag461
ag952
ag1255
ag988
atp3316
Rp3317
ssg1
((lp3318
(I3
I2
tp3319
a(I3
I1
tp3320
atp3321
Rp3322
(dp3323
g9
g10
((lp3324
g1439
ag1600
ag29
ag1747
atp3325
Rp3326
sg46
g10
((lp3327
g1588
ag232
ag446
ag527
ag496
ag437
ag223
ag423
ag1594
ag1093
atp3328
Rp3329
sg92
g10
((lp3330
g1102
ag137
ag496
ag599
ag1108
ag1594
ag1225
ag1093
ag1228
ag232
ag1600
ag437
ag157
ag160
ag1081
ag1099
ag502
ag527
ag455
ag1105
ag458
ag1222
ag201
ag473
ag1588
ag446
ag816
ag223
ag1320
ag423
ag1111
ag1114
atp3331
Rp3332
ssg1
((lp3333
g1730
atp3334
Rp3335
(dp3336
g9
g10
((lp3337
g29
ag1747
atp3338
Rp3339
sg46
g10
((lp3340
g223
ag1588
ag232
ag446
ag527
ag496
ag437
ag423
ag810
ag1754
ag428
ag418
ag1594
ag1093
ag266
atp3341
Rp3342
sg92
g10
((lp3343
g1102
ag253
ag266
ag1744
ag455
ag411
ag281
ag288
ag599
ag1754
ag137
ag1222
ag464
ag502
ag157
ag1093
ag160
ag1228
ag308
ag232
ag318
ag1600
ag437
ag1747
ag1225
ag1243
ag428
ag816
ag192
ag527
ag329
ag467
ag496
ag470
ag1531
ag185
ag668
ag345
ag587
ag452
ag1240
ag810
ag423
ag1105
ag458
ag581
ag1594
ag201
ag473
ag371
ag375
ag1588
ag378
ag446
ag1099
ag1081
ag299
ag1108
ag223
ag1320
ag1255
ag461
ag418
ag1111
ag1114
ag590
atp3344
Rp3345
ssg1
((lp3346
g1970
ag1971
ag1972
atp3347
Rp3348
(dp3349
g9
g10
((lp3350
g253
ag1252
ag348
ag177
ag29
ag181
ag216
ag1225
atp3351
Rp3352
sg46
g10
((lp3353
g423
ag527
ag496
ag437
ag1093
atp3354
Rp3355
sg92
g10
((lp3356
g1102
ag1093
ag502
ag816
ag496
ag437
ag527
ag1105
ag458
ag423
ag1222
ag1225
ag1114
ag1228
atp3357
Rp3358
ssg1
((lp3359
g603
ag604
ag820
ag606
atp3360
Rp3361
(dp3362
g9
g10
((lp3363
g167
ag26
ag188
ag872
ag141
ag29
ag854
ag145
ag616
ag210
ag213
ag174
ag628
ag631
atp3364
Rp3365
sg46
g10
((lp3366
g639
ag836
ag642
atp3367
Rp3368
sg92
g10
((lp3369
g639
ag854
ag648
ag642
ag860
ag836
atp3370
Rp3371
ssg1
((lp3372
g1206
ag1849
ag1850
ag1782
ag1848
ag2900
atp3373
Rp3374
(dp3375
g9
g10
((lp3376
g253
ag257
ag1219
ag275
ag411
ag141
ag29
ag292
ag296
ag464
ag584
ag315
ag318
ag662
ag665
ag181
ag428
ag470
ag1531
ag185
ag976
ag668
ag345
ag348
ag587
ag452
ag354
ag1240
ag358
ag1243
ag365
ag408
ag1249
ag578
ag1255
ag461
ag982
ag985
ag590
ag988
atp3377
Rp3378
sg46
g10
((lp3379
g428
atp3380
Rp3381
sg92
g10
((lp3382
g428
atp3383
Rp3384
ssg1
((lp3385
g1118
ag879
ag2482
atp3386
Rp3387
(dp3388
g9
g10
((lp3389
g922
ag1739
ag887
ag1125
ag29
ag916
ag937
atp3390
Rp3391
sg46
g10
((lp3392
g53
ag71
ag916
ag532
ag642
atp3393
Rp3394
sg92
g10
((lp3395
g53
ag538
ag105
ag71
ag769
ag916
ag532
ag642
ag651
ag544
atp3396
Rp3397
ssg1
((lp3398
g1028
ag507
atp3399
Rp3400
(dp3401
g9
g10
((lp3402
g43
ag325
ag257
ag29
atp3403
Rp3404
sg46
g10
((lp3405
g53
ag901
ag266
ag911
ag810
ag532
ag71
ag62
atp3406
Rp3407
sg92
g10
((lp3408
g703
ag108
ag810
ag266
ag711
ag62
ag53
ag311
ag1469
ag302
ag325
ag105
ag928
ag336
ag538
ag1151
ag940
ag532
ag721
ag1036
ag724
ag71
ag778
ag544
ag368
ag375
ag901
ag911
ag949
ag381
ag111
ag388
atp3409
Rp3410
ssg1
((lp3411
g1849
ag1206
ag1850
atp3412
Rp3413
(dp3414
g9
g10
((lp3415
g253
ag315
ag275
ag345
ag348
ag29
ag181
ag358
atp3416
Rp3417
sg46
g10
((lp3418
g266
ag496
ag437
ag810
ag428
ag423
atp3419
Rp3420
sg92
g10
((lp3421
g371
ag375
ag502
ag318
ag345
ag496
ag437
ag452
ag288
ag810
ag423
ag428
ag458
ag461
ag1243
ag266
ag329
ag1255
ag1228
atp3422
Rp3423
ssg1
((lp3424
g604
ag1518
ag605
ag606
atp3425
Rp3426
(dp3427
g9
g10
((lp3428
g714
ag257
ag26
ag784
ag575
ag29
ag145
ag619
ag982
ag931
ag625
ag584
ag761
ag973
ag946
ag631
atp3429
Rp3430
sg46
g10
((lp3431
g831
ag901
ag532
ag642
atp3432
Rp3433
sg92
g10
((lp3434
g831
ag901
ag863
ag532
ag642
ag931
ag928
ag651
ag955
atp3435
Rp3436
ssg1
((lp3437
g1181
ag1182
ag1183
ag1185
ag1184
atp3438
Rp3439
(dp3440
g9
g10
((lp3441
g141
ag29
ag145
ag150
ag154
ag164
ag167
ag26
ag170
ag174
ag854
ag860
ag934
ag628
ag631
ag616
ag188
ag198
ag204
ag1196
ag207
ag872
ag210
ag213
ag216
atp3442
Rp3443
sg46
g10
((lp3444
g639
ag836
atp3445
Rp3446
sg92
g10
((lp3447
g639
ag860
ag836
atp3448
Rp3449
ssg1
((lp3450
g998
ag999
ag1549
ag1622
atp3451
Rp3452
(dp3453
g9
g10
((lp3454
g1271
ag188
ag781
ag170
ag141
ag29
ag35
ag1084
ag210
ag150
ag154
ag1296
ag216
ag1302
atp3455
Rp3456
sg46
g10
((lp3457
g232
ag836
ag1093
atp3458
Rp3459
sg92
g10
((lp3460
g232
ag1108
ag875
ag836
ag1093
ag1296
atp3461
Rp3462
ssg1
((lp3463
g1374
ag961
ag960
ag962
ag959
ag963
atp3464
Rp3465
(dp3466
g9
g10
((lp3467
g257
ag842
ag141
ag29
ag145
ag584
ag625
ag714
ag167
ag26
ag662
ag761
ag857
ag931
ag970
ag973
ag831
ag976
ag979
ag718
ag982
ag358
ag619
ag863
ag365
ag946
ag866
ag665
ag408
ag572
ag784
ag845
ag578
ag872
ag575
ag952
ag985
ag955
ag631
ag988
atp3468
Rp3469
sg46
g10
((lp3470
g831
atp3471
Rp3472
sg92
g10
((lp3473
g831
atp3474
Rp3475
ssg1
((lp3476
g506
ag734
ag1028
ag507
atp3477
Rp3478
(dp3479
g9
g10
((lp3480
g714
ag257
ag26
ag188
ag703
ag29
ag556
ag515
ag538
ag772
ag325
ag40
ag43
ag628
atp3481
Rp3482
sg46
g10
((lp3483
g53
ag71
ag532
atp3484
Rp3485
sg92
g10
((lp3486
g53
ag538
ag532
ag105
ag71
ag544
atp3487
Rp3488
ssg1
((lp3489
g398
ag563
ag400
atp3490
Rp3491
(dp3492
g9
g10
((lp3493
g668
ag275
ag665
ag29
ag181
ag358
ag584
ag587
atp3494
Rp3495
sg46
g10
((lp3496
g418
ag810
ag428
ag437
ag446
atp3497
Rp3498
sg92
g10
((lp3499
g1531
ag810
ag668
ag446
ag455
ag437
ag1243
ag418
ag428
ag1255
ag461
ag464
ag467
ag470
atp3500
Rp3501
ssg1
((lp3502
g603
ag604
ag606
atp3503
Rp3504
(dp3505
g9
g10
((lp3506
g26
ag188
ag616
ag29
ag145
ag213
ag628
ag631
atp3507
Rp3508
sg46
g10
((lp3509
g53
ag639
ag89
ag532
ag642
ag836
atp3510
Rp3511
sg92
g10
((lp3512
g943
ag53
ag99
ag616
ag639
ag769
ag836
ag89
ag854
ag648
ag532
ag642
ag766
ag860
ag651
ag934
ag622
ag544
ag559
atp3513
Rp3514
ssg1
((lp3515
g1849
ag1206
atp3516
Rp3517
(dp3518
g9
g10
((lp3519
g253
ag348
ag29
ag181
atp3520
Rp3521
sg46
g10
((lp3522
g266
ag527
ag496
ag437
ag810
ag428
ag423
ag1093
atp3523
Rp3524
sg92
g10
((lp3525
g1102
ag253
ag266
ag281
ag288
ag1225
ag1093
ag1228
ag308
ag318
ag437
ag428
ag329
ag496
ag502
ag345
ag527
ag452
ag1240
ag810
ag1105
ag458
ag1243
ag1222
ag371
ag375
ag378
ag816
ag1255
ag461
ag423
ag1114
atp3526
Rp3527
ssg1
((lp3528
g398
ag563
atp3529
Rp3530
(dp3531
g9
g10
((lp3532
g587
ag584
ag29
ag181
atp3533
Rp3534
sg46
g10
((lp3535
g223
ag446
ag437
ag810
ag428
ag418
atp3536
Rp3537
sg92
g10
((lp3538
g1531
ag810
ag668
ag1255
ag446
ag455
ag437
ag599
ag587
ag1243
ag581
ag428
ag1320
ag470
ag461
ag223
ag464
ag418
ag467
ag590
atp3539
Rp3540
ssg1
((lp3541
g1782
ag1206
ag1850
atp3542
Rp3543
(dp3544
g9
g10
((lp3545
g257
ag315
ag348
ag29
ag354
ag358
ag296
ag365
atp3546
Rp3547
sg46
g10
((lp3548
g911
ag810
ag428
ag62
ag266
atp3549
Rp3550
sg92
g10
((lp3551
g336
ag375
ag1219
ag266
ag318
ag911
ag354
ag1151
ag810
ag428
ag724
ag302
ag62
ag1255
atp3552
Rp3553
ssg1
((lp3554
g2202
atp3555
Rp3556
(dp3557
g9
g10
((lp3558
g1750
ag29
atp3559
Rp3560
sg46
g10
((lp3561
g831
ag901
ag1588
ag266
ag446
ag911
ag907
ag496
ag437
ag423
ag810
ag1754
ag428
ag418
ag62
atp3562
Rp3563
sg92
g10
((lp3564
g1531
ag1219
ag266
ag271
ag1744
ag455
ag411
ag496
ag288
ag810
ag1754
ag423
ag464
ag342
ag711
ag62
ag1228
ag302
ag315
ag1469
ag662
ag907
ag437
ag428
ag321
ag857
ag949
ag329
ag467
ag970
ag470
ag831
ag339
ag976
ag668
ag375
ag502
ag345
ag452
ag354
ag1151
ag1750
ag418
ag458
ag1243
ag724
ag473
ag955
ag318
ag371
ag979
ag901
ag1588
ag408
ag446
ag1249
ag336
ag845
ag911
ag1757
ag461
ag665
ag952
ag388
ag1255
ag988
atp3565
Rp3566
ssg1
((lp3567
g603
ag606
atp3568
Rp3569
(dp3570
g9
g10
((lp3571
g145
ag213
ag29
ag188
atp3572
Rp3573
sg46
g10
((lp3574
g53
ag232
ag639
ag89
ag223
ag532
ag642
ag836
atp3575
Rp3576
sg92
g10
((lp3577
g137
ag89
ag622
ag651
ag559
ag164
ag232
ag869
ag766
ag769
ag174
ag851
ag854
ag642
ag860
ag934
ag53
ag99
ag616
ag639
ag532
ag198
ag544
ag943
ag613
ag787
ag223
ag648
ag213
ag1299
ag875
ag836
atp3578
Rp3579
ssg1
((lp3580
(I1
I2
tp3581
ag2348
ag2349
ag2350
ag2351
atp3582
Rp3583
(dp3584
g9
g10
((lp3585
g1271
ag541
ag29
ag515
ag547
ag150
ag553
ag1231
ag1084
ag1234
ag188
ag348
ag351
ag32
ag35
ag1274
ag550
ag361
ag1246
ag781
ag1252
ag43
ag384
ag216
ag1237
atp3586
Rp3587
sg46
g10
((lp3588
g527
ag80
atp3589
Rp3590
sg92
g10
((lp3591
g527
ag550
ag80
atp3592
Rp3593
ssg1
((lp3594
g3581
ag2349
a(I1
I3
tp3595
ag2351
ag2348
ag2350
atp3596
Rp3597
(dp3598
g9
g10
((lp3599
g22
ag1271
ag541
ag29
ag515
ag547
ag150
ag707
ag553
ag16
ag925
ag26
ag1231
ag1084
ag114
ag628
ag1234
ag96
ag188
ag102
ag348
ag351
ag32
ag775
ag35
ag1274
ag550
ag80
ag40
ag361
ag556
ag1196
ag1246
ag781
ag1252
ag43
ag384
ag216
ag117
ag1237
atp3600
Rp3601
sg46
g10
((lp3602
g80
atp3603
Rp3604
sg92
g10
((lp3605
g80
atp3606
Rp3607
ssg1
((lp3608
g820
ag604
ag1518
ag605
ag606
atp3609
Rp3610
(dp3611
g9
g10
((lp3612
g257
ag842
ag141
ag29
ag145
ag584
ag625
ag714
ag167
ag26
ag761
ag931
ag973
ag982
ag619
ag863
ag946
ag866
ag572
ag784
ag578
ag872
ag575
ag985
ag631
atp3613
Rp3614
sg46
g10
((lp3615
g831
ag642
atp3616
Rp3617
sg92
g10
((lp3618
g831
ag642
ag863
atp3619
Rp3620
ssg1
((lp3621
g734
ag507
atp3622
Rp3623
(dp3624
g9
g10
((lp3625
g43
ag29
ag26
ag40
atp3626
Rp3627
sg46
g10
((lp3628
g53
ag901
ag911
ag89
ag532
ag80
ag71
ag62
atp3629
Rp3630
sg92
g10
((lp3631
g22
ag703
ag108
ag89
ag707
ag711
ag62
ag559
ag53
ag556
ag928
ag105
ag114
ag96
ag538
ag99
ag102
ag940
ag532
ag721
ag40
ag724
ag71
ag778
ag544
ag742
ag901
ag911
ag949
ag80
ag111
ag117
atp3632
Rp3633
ssg1
((lp3634
(I1
I2
tp3635
ag3319
ag3320
atp3636
Rp3637
(dp3638
g9
g10
((lp3639
g1125
ag1600
ag29
ag1747
ag1436
ag1594
ag1439
atp3640
Rp3641
sg46
g10
((lp3642
g223
ag1594
ag232
ag527
ag1093
atp3643
Rp3644
sg92
g10
((lp3645
g137
ag232
ag527
ag1105
ag223
ag1108
ag1594
ag1111
ag157
ag1093
atp3646
Rp3647
ssg1
((lp3648
g1357
ag1358
ag1360
atp3649
Rp3650
(dp3651
g9
g10
((lp3652
g361
ag29
ag348
ag351
ag32
ag35
ag43
ag384
atp3653
Rp3654
sg46
g10
((lp3655
g266
ag496
ag527
ag80
ag71
ag62
atp3656
Rp3657
sg92
g10
((lp3658
g371
ag339
ag553
ag378
ag1246
ag62
ag496
ag816
ag302
ag550
ag80
ag527
ag266
ag111
ag361
ag114
ag71
ag117
ag368
atp3659
Rp3660
ssg1
((lp3661
g122
ag123
ag124
atp3662
Rp3663
(dp3664
g9
g10
((lp3665
g185
ag170
ag141
ag177
ag29
ag181
ag216
ag201
atp3666
Rp3667
sg46
g10
((lp3668
g232
ag446
ag437
ag223
ag423
ag1093
atp3669
Rp3670
sg92
g10
((lp3671
g1099
ag137
ag1093
ag232
ag223
ag446
ag455
ag437
ag157
ag599
ag1108
ag1320
ag458
ag423
ag1222
ag473
ag201
ag1114
ag160
atp3672
Rp3673
ssg1
((lp3674
g798
ag797
ag2846
ag799
ag2739
atp3675
Rp3676
(dp3677
g9
g10
((lp3678
g253
ag257
ag271
ag275
ag29
ag292
ag296
ag308
ag315
ag318
ag181
ag325
ag329
ag336
ag342
ag345
ag348
ag351
ag354
ag358
ag365
ag375
ag381
ag43
ag388
atp3679
Rp3680
sg46
g10
((lp3681
g810
ag266
atp3682
Rp3683
sg92
g10
((lp3684
g810
ag375
ag266
atp3685
Rp3686
ssg1
((lp3687
g1182
ag1184
atp3688
Rp3689
(dp3690
g9
g10
((lp3691
g145
ag216
ag207
ag29
atp3692
Rp3693
sg46
g10
((lp3694
g232
ag446
ag639
ag89
ag223
ag836
atp3695
Rp3696
sg92
g10
((lp3697
g204
ag164
ag207
ag875
ag232
ag223
ag446
ag137
ag639
ag836
ag89
ag851
ag599
ag848
ag943
ag1299
ag860
ag934
ag198
ag160
atp3698
Rp3699
ssg1
((lp3700
(I3
I2
tp3701
a(I3
I1
tp3702
a(I2
I1
tp3703
atp3704
Rp3705
(dp3706
g9
g10
((lp3707
g1588
ag1744
ag1600
ag29
ag1747
ag1750
ag1439
atp3708
Rp3709
sg46
g10
((lp3710
g423
ag496
ag1588
ag437
ag446
atp3711
Rp3712
sg92
g10
((lp3713
g1588
ag502
ag446
ag496
ag437
ag455
ag458
ag423
ag473
ag1228
atp3714
Rp3715
ssg1
((lp3716
g604
ag1518
ag606
atp3717
Rp3718
(dp3719
g9
g10
((lp3720
g714
ag257
ag26
ag784
ag29
ag145
ag761
ag631
atp3721
Rp3722
sg46
g10
((lp3723
g53
ag831
ag901
ag532
ag642
atp3724
Rp3725
sg92
g10
((lp3726
g53
ag831
ag901
ag863
ag784
ag928
ag642
ag769
ag931
ag532
ag651
ag778
ag955
ag544
atp3727
Rp3728
ssg1
((lp3729
g1970
ag1972
atp3730
Rp3731
(dp3732
g9
g10
((lp3733
g1252
ag216
ag348
ag29
atp3734
Rp3735
sg46
g10
((lp3736
g527
ag496
ag437
ag80
ag423
ag1093
atp3737
Rp3738
sg92
g10
((lp3739
g1102
ag1093
ag502
ag1246
ag1252
ag816
ag496
ag1237
ag437
ag527
ag1105
ag550
ag80
ag458
ag423
ag1222
ag1234
ag1225
ag1114
ag1228
atp3740
Rp3741
ssg1
((lp3742
g603
ag820
ag605
ag606
atp3743
Rp3744
(dp3745
g9
g10
((lp3746
g613
ag167
ag188
ag572
ag575
ag141
ag869
ag29
ag578
ag145
ag210
ag213
ag584
ag174
atp3747
Rp3748
sg46
g10
((lp3749
g639
ag223
ag642
atp3750
Rp3751
sg92
g10
((lp3752
g869
ag639
ag851
ag223
ag648
ag642
atp3753
Rp3754
ssg1
((lp3755
g998
ag999
ag1001
atp3756
Rp3757
(dp3758
g9
g10
((lp3759
g188
ag781
ag29
ag35
ag145
ag213
ag787
atp3760
Rp3761
sg46
g10
((lp3762
g53
ag232
ag836
ag89
atp3763
Rp3764
sg92
g10
((lp3765
g943
ag53
ag99
ag766
ag89
ag787
ag232
ag1299
ag875
ag836
atp3766
Rp3767
ssg1
((lp3768
g121
ag122
ag123
ag125
ag124
ag1716
atp3769
Rp3770
(dp3771
g9
g10
((lp3772
g137
ag141
ag29
ag145
ag150
ag154
ag584
ag157
ag160
ag164
ag167
ag869
ag170
ag174
ag177
ag181
ag851
ag613
ag185
ag188
ag192
ag1193
ag587
ag581
ag195
ag198
ag201
ag204
ag599
ag207
ag572
ag575
ag578
ag223
ag848
ag210
ag1320
ag213
ag216
ag590
atp3773
Rp3774
sg46
g10
((lp3775
g223
atp3776
Rp3777
sg92
g10
((lp3778
g223
atp3779
Rp3780
ssg1
((lp3781
g603
ag604
ag820
ag605
ag606
atp3782
Rp3783
(dp3784
g9
g10
((lp3785
g141
ag29
ag145
ag584
ag625
ag167
ag26
ag869
ag174
ag648
ag854
ag613
ag628
ag631
ag616
ag188
ag619
ag622
ag866
ag572
ag575
ag578
ag872
ag210
ag213
atp3786
Rp3787
sg46
g10
((lp3788
g639
ag642
atp3789
Rp3790
sg92
g10
((lp3791
g639
ag648
ag642
atp3792
Rp3793
ssg1
((lp3794
g122
ag123
ag124
ag1716
atp3795
Rp3796
(dp3797
g9
g10
((lp3798
g185
ag177
ag170
ag587
ag141
ag1193
ag29
ag181
ag578
ag1320
ag584
ag216
ag201
ag590
atp3799
Rp3800
sg46
g10
((lp3801
g223
ag437
ag446
atp3802
Rp3803
sg92
g10
((lp3804
g223
ag446
ag455
ag437
ag599
ag1320
atp3805
Rp3806
ssg1
((lp3807
g1135
ag1136
ag1137
atp3808
Rp3809
(dp3810
g9
g10
((lp3811
g257
ag381
ag351
ag348
ag29
ag325
ag296
ag43
atp3812
Rp3813
sg46
g10
((lp3814
g911
ag810
ag71
ag62
ag266
atp3815
Rp3816
sg92
g10
((lp3817
g336
ag375
ag266
ag911
ag1151
ag810
ag721
ag381
ag724
ag111
ag302
ag62
ag71
ag368
atp3818
Rp3819
ssg1
((lp3820
g603
ag604
ag1518
ag606
atp3821
Rp3822
(dp3823
g9
g10
((lp3824
g714
ag257
ag26
ag188
ag784
ag616
ag29
ag145
ag772
ag769
ag213
ag761
ag628
ag631
atp3825
Rp3826
sg46
g10
((lp3827
g53
ag532
ag642
atp3828
Rp3829
sg92
g10
((lp3830
g53
ag769
ag532
ag642
ag651
ag544
atp3831
Rp3832
ssg1
((lp3833
g507
atp3834
Rp3835
(dp3836
g9
g10
((lp3837
g43
ag29
atp3838
Rp3839
sg46
g10
((lp3840
g53
ag901
ag266
ag911
ag496
ag527
ag89
ag810
ag532
ag80
ag71
ag62
atp3841
Rp3842
sg92
g10
((lp3843
g22
ag703
ag108
ag271
ag541
ag339
ag40
ag89
ag810
ag515
ag547
ag707
ag711
ag62
ag71
ag266
ag559
ag53
ag308
ag311
ag1469
ag302
ag556
ag325
ag105
ag928
ag342
ag329
ag114
ag496
ag96
ag538
ag99
ag102
ag527
ag351
ag32
ag1151
ag940
ag1274
ag550
ag532
ag721
ag1036
ag724
ag368
ag778
ag544
ag361
ag742
ag371
ag375
ag901
ag378
ag1246
ag336
ag553
ag816
ag911
ag949
ag381
ag43
ag80
ag111
ag388
ag117
atp3844
Rp3845
ssg1
((lp3846
g998
ag999
ag1549
ag1622
ag1001
atp3847
Rp3848
(dp3849
g9
g10
((lp3850
g1271
ag141
ag29
ag145
ag150
ag154
ag164
ag167
ag170
ag174
ag1084
ag1296
ag188
ag35
ag198
ag204
ag207
ag781
ag787
ag210
ag213
ag1299
ag875
ag216
ag1302
atp3851
Rp3852
sg46
g10
((lp3853
g232
ag836
atp3854
Rp3855
sg92
g10
((lp3856
g232
ag875
ag836
atp3857
Rp3858
ssg1
((lp3859
g998
ag1549
ag1000
ag1001
ag999
ag1622
atp3860
Rp3861
(dp3862
g9
g10
((lp3863
g1271
ag141
ag29
ag145
ag150
ag154
ag164
ag167
ag26
ag1084
ag170
ag174
ag854
ag766
ag860
ag934
ag628
ag631
ag16
ag616
ag188
ag775
ag35
ag943
ag925
ag198
ag204
ag1196
ag207
ag875
ag781
ag836
ag787
ag872
ag210
ag213
ag1299
ag1296
ag216
ag1302
atp3864
Rp3865
sg46
g10
((lp3866
g836
atp3867
Rp3868
sg92
g10
((lp3869
g836
atp3870
Rp3871
ssg1
((lp3872
g398
ag399
ag563
atp3873
Rp3874
(dp3875
g9
g10
((lp3876
g185
ag587
ag141
ag29
ag181
ag578
ag584
ag590
atp3877
Rp3878
sg46
g10
((lp3879
g418
ag223
ag428
ag437
ag446
atp3880
Rp3881
sg92
g10
((lp3882
g223
ag446
ag455
ag437
ag599
ag581
ag428
ag1320
ag590
ag461
ag464
ag418
ag467
ag470
atp3883
Rp3884
ss.