(dp0
c__builtin__
frozenset
p1
((lp2
(I1
I3
tp3
a(I2
I3
tp4
atp5
Rp6
(dp7
S'down'
p8
c__builtin__
set
p9
((lp10
g1
((lp11
(I1
I3
tp12
a(I2
I3
tp13
atp14
Rp15
ag1
((lp16
g13
atp17
Rp18
ag1
((lp19
tp20
Rp21
ag1
((lp22
g12
atp23
Rp24
atp25
Rp26
sS'max'
p27
g9
((lp28
g1
((lp29
(I1
I3
tp30
a(I2
I3
tp31
a(I2
I1
tp32
atp33
Rp34
ag1
((lp35
(I1
I2
tp36
ag12
ag13
atp37
Rp38
atp39
Rp40
sS'up'
p41
g9
((lp42
g15
ag38
ag34
atp43
Rp44
ssg1
((lp45
g4
atp46
Rp47
(dp48
g8
g9
((lp49
g18
ag21
atp50
Rp51
sg27
g9
((lp52
g34
ag38
ag1
((lp53
(I3
I1
tp54
a(I2
I3
tp55
a(I2
I1
tp56
atp57
Rp58
atp59
Rp60
sg41
g9
((lp61
g15
ag18
ag34
ag58
ag38
ag1
((lp62
g31
ag32
atp63
Rp64
atp65
Rp66
ssg1
((lp67
(I3
I2
tp68
a(I3
I1
tp69
atp70
Rp71
(dp72
g8
g9
((lp73
g1
((lp74
(I3
I2
tp75
atp76
Rp77
ag1
((lp78
(I3
I2
tp79
a(I3
I1
tp80
atp81
Rp82
ag21
ag1
((lp83
g54
atp84
Rp85
atp86
Rp87
sg27
g9
((lp88
g1
((lp89
(I1
I2
tp90
ag79
ag80
atp91
Rp92
ag1
((lp93
(I3
I2
tp94
a(I3
I1
tp95
a(I2
I1
tp96
atp97
Rp98
atp99
Rp100
sg41
g9
((lp101
g92
ag82
ag98
atp102
Rp103
ssg1
((lp104
g3
atp105
Rp106
(dp107
g8
g9
((lp108
g21
ag24
atp109
Rp110
sg27
g9
((lp111
g1
((lp112
(I1
I2
tp113
ag75
a(I1
I3
tp114
atp115
Rp116
ag38
ag34
atp117
Rp118
sg41
g9
((lp119
g116
ag24
ag15
ag34
ag38
ag1
((lp120
g36
ag12
atp121
Rp122
atp123
Rp124
ssg1
((lp125
(I1
I2
tp126
atp127
Rp128
(dp129
g8
g9
((lp130
g21
ag1
((lp131
g36
atp132
Rp133
atp134
Rp135
sg27
g9
((lp136
g116
ag38
ag92
atp137
Rp138
sg41
g9
((lp139
g116
ag133
ag38
ag1
((lp140
g113
ag75
atp141
Rp142
ag92
ag122
atp143
Rp144
ssg1
((lp145
(I1
I2
tp146
a(I3
I2
tp147
a(I1
I3
tp148
atp149
Rp150
(dp151
g8
g9
((lp152
g116
ag24
ag133
ag21
ag142
ag77
ag122
atp153
Rp154
sg27
g9
((lp155
g116
atp156
Rp157
sg41
g9
((lp158
g116
atp159
Rp160
ssg1
((lp161
(I2
I3
tp162
a(I2
I1
tp163
atp164
Rp165
(dp166
g8
g9
((lp167
g1
((lp168
g32
atp169
Rp170
ag64
ag18
ag21
atp171
Rp172
sg27
g9
((lp173
g34
ag58
atp174
Rp175
sg41
g9
((lp176
g34
ag64
ag58
atp177
Rp178
ssg1
((lp179
(I3
I1
tp180
a(I2
I1
tp181
atp182
Rp183
(dp184
g8
g9
((lp185
g170
ag21
ag85
ag1
((lp186
g54
ag56
atp187
Rp188
atp189
Rp190
sg27
g9
((lp191
g58
ag98
atp192
Rp193
sg41
g9
((lp194
g58
ag98
ag188
atp195
Rp196
ssg21
(dp197
g8
g9
((lp198
g21
atp199
Rp200
sg27
g9
((lp201
g116
ag98
ag34
ag58
ag38
ag92
atp202
Rp203
sg41
g9
((lp204
g15
ag18
ag82
ag24
ag133
ag116
ag64
ag188
ag21
ag85
ag170
ag58
ag38
ag142
ag34
ag92
ag77
ag122
ag98
atp205
Rp206
ssg1
((lp207
g180
atp208
Rp209
(dp210
g8
g9
((lp211
g21
ag85
atp212
Rp213
sg27
g9
((lp214
g58
ag98
ag92
atp215
Rp216
sg41
g9
((lp217
g98
ag188
ag82
ag85
ag58
ag92
atp218
Rp219
ssg1
((lp220
g163
atp221
Rp222
(dp223
g8
g9
((lp224
g170
ag21
atp225
Rp226
sg27
g9
((lp227
g34
ag98
ag58
atp228
Rp229
sg41
g9
((lp230
g98
ag188
ag34
ag170
ag58
ag64
atp231
Rp232
ssg1
((lp233
g180
a(I2
I3
tp234
ag181
atp235
Rp236
(dp237
g8
g9
((lp238
g18
ag188
ag21
ag85
ag170
ag58
ag64
atp239
Rp240
sg27
g9
((lp241
g58
atp242
Rp243
sg41
g9
((lp244
g58
atp245
Rp246
ssg1
((lp247
g126
ag3
ag4
atp248
Rp249
(dp250
g8
g9
((lp251
g15
ag18
ag24
ag133
ag21
ag38
ag122
atp252
Rp253
sg27
g9
((lp254
g38
atp255
Rp256
sg41
g9
((lp257
g38
atp258
Rp259
ssg1
((lp260
g146
ag147
atp261
Rp262
(dp263
g8
g9
((lp264
g77
ag142
ag21
ag133
atp265
Rp266
sg27
g9
((lp267
g116
ag92
atp268
Rp269
sg41
g9
((lp270
g116
ag142
ag92
atp271
Rp272
ssg1
((lp273
(I1
I3
tp274
ag162
ag163
atp275
Rp276
(dp277
g8
g9
((lp278
g15
ag18
ag24
ag34
ag21
ag170
ag64
atp279
Rp280
sg27
g9
((lp281
g34
atp282
Rp283
sg41
g9
((lp284
g34
atp285
Rp286
ssg1
((lp287
(I1
I2
tp288
ag68
ag69
atp289
Rp290
(dp291
g8
g9
((lp292
g133
ag82
ag21
ag85
ag142
ag92
ag77
atp293
Rp294
sg27
g9
((lp295
g92
atp296
Rp297
sg41
g9
((lp298
g92
atp299
Rp300
ssg1
((lp301
g147
atp302
Rp303
(dp304
g8
g9
((lp305
g77
ag21
atp306
Rp307
sg27
g9
((lp308
g116
ag98
ag92
atp309
Rp310
sg41
g9
((lp311
g116
ag98
ag82
ag142
ag92
ag77
atp312
Rp313
ssg1
((lp314
g126
ag3
atp315
Rp316
(dp317
g8
g9
((lp318
g21
ag24
ag133
ag122
atp319
Rp320
sg27
g9
((lp321
g116
ag38
atp322
Rp323
sg41
g9
((lp324
g116
ag38
ag122
atp325
Rp326
ssg1
((lp327
(I3
I2
tp328
a(I3
I1
tp329
a(I2
I1
tp330
atp331
Rp332
(dp333
g8
g9
((lp334
g98
ag188
ag82
ag21
ag85
ag170
ag77
atp335
Rp336
sg27
g9
((lp337
g98
atp338
Rp339
sg41
g9
((lp340
g98
atp341
Rp342
ss.